

Microchip MPLAB XC8 Assembler V2.32 build 20210201212658 
                                                                                               Sun Dec 05 21:49:00 2021

Microchip MPLAB XC8 C Compiler v2.32 (Free license) build 20210201212658 Og1 
     1                           	processor	16F15325
     2                           	pagewidth 120
     3                           	opt	flic
     4                           	psect	idataBIGRAM,global,class=CODE,delta=2,noexec
     5                           	psect	idataBANK0,global,class=CODE,delta=2,noexec
     6                           	psect	nvBANK0,global,class=BANK0,space=1,delta=1,noexec
     7                           	psect	cinit,global,class=CODE,merge=1,delta=2
     8                           	psect	bssCOMMON,global,class=COMMON,space=1,delta=1,noexec
     9                           	psect	bssBANK0,global,class=BANK0,space=1,delta=1,noexec
    10                           	psect	dataBANK0,global,class=BANK0,space=1,delta=1,noexec
    11                           	psect	inittext,global,class=CODE,delta=2
    12                           	psect	cstackCOMMON,global,class=COMMON,space=1,delta=1,noexec
    13                           	psect	cstackBANK0,global,class=BANK0,space=1,delta=1,noexec
    14                           	psect	maintext,global,class=CODE,merge=1,split=1,delta=2
    15                           	psect	text1,local,class=CODE,merge=1,delta=2
    16                           	psect	text2,local,class=CODE,merge=1,delta=2
    17                           	psect	text3,local,class=CODE,merge=1,delta=2
    18                           	psect	text4,local,class=CODE,merge=1,delta=2
    19                           	psect	text5,local,class=CODE,merge=1,delta=2
    20                           	psect	text6,local,class=CODE,merge=1,delta=2
    21                           	psect	text7,local,class=CODE,merge=1,delta=2
    22                           	psect	text8,local,class=CODE,merge=1,delta=2
    23                           	psect	text9,local,class=CODE,merge=1,delta=2
    24                           	psect	text10,local,class=CODE,merge=1,delta=2
    25                           	psect	text11,local,class=CODE,merge=1,delta=2
    26                           	psect	text12,local,class=CODE,merge=1,delta=2
    27                           	psect	text13,local,class=CODE,merge=1,delta=2
    28                           	psect	text14,local,class=CODE,merge=1,delta=2
    29                           	psect	text15,local,class=CODE,merge=1,delta=2
    30                           	psect	text16,local,class=CODE,merge=1,delta=2
    31                           	psect	text17,local,class=CODE,merge=1,delta=2
    32                           	psect	text18,local,class=CODE,merge=1,delta=2
    33                           	psect	text19,local,class=CODE,merge=1,delta=2
    34                           	psect	intentry,global,class=CODE,delta=2
    35                           	psect	text21,local,class=CODE,merge=1,delta=2
    36                           	psect	text22,local,class=CODE,merge=1,delta=2
    37                           	psect	text23,local,class=CODE,merge=1,delta=2
    38                           	psect	text24,local,class=CODE,merge=1,delta=2
    39                           	psect	text25,local,class=CODE,merge=1,delta=2
    40                           	psect	text26,local,class=CODE,merge=1,delta=2
    41                           	psect	text27,local,class=CODE,merge=1,delta=2
    42                           	psect	text28,local,class=CODE,merge=1,delta=2
    43                           	psect	config,global,abs,ovrld,class=CONFIG,space=4,delta=2,noexec
    44                           	dabs	1,0x620,48
    45                           	dabs	1,0x5A0,80
    46                           	dabs	1,0x560,16
    47                           	dabs	1,0x2360,0,_track_silent_night
    48                           	dabs	1,0x7E,2
    49  0000                     
    50                           ; Version 2.35
    51                           ; Generated 13/04/2021 GMT
    52                           ; 
    53                           ; Copyright © 2021, Microchip Technology Inc. and its subsidiaries ("Microchip")
    54                           ; All rights reserved.
    55                           ; 
    56                           ; This software is developed by Microchip Technology Inc. and its subsidiaries ("Microch
      +                          ip").
    57                           ; 
    58                           ; Redistribution and use in source and binary forms, with or without modification, are
    59                           ; permitted provided that the following conditions are met:
    60                           ; 
    61                           ;     1. Redistributions of source code must retain the above copyright notice, this lis
      +                          t of
    62                           ;        conditions and the following disclaimer.
    63                           ; 
    64                           ;     2. Redistributions in binary form must reproduce the above copyright notice, this 
      +                          list
    65                           ;        of conditions and the following disclaimer in the documentation and/or other
    66                           ;        materials provided with the distribution. Publication is not required when
    67                           ;        this file is used in an embedded application.
    68                           ; 
    69                           ;     3. Microchip's name may not be used to endorse or promote products derived from th
      +                          is
    70                           ;        software without specific prior written permission.
    71                           ; 
    72                           ; THIS SOFTWARE IS PROVIDED BY MICROCHIP "AS IS" AND ANY EXPRESS OR IMPLIED WARRANTIES,
    73                           ; INCLUDING, BUT NOT LIMITED TO, THE IMPLIED WARRANTIES OF MERCHANTABILITY AND FITNESS F
      +                          OR
    74                           ; PURPOSE ARE DISCLAIMED.  IN NO EVENT SHALL MICROCHIP BE LIABLE FOR ANY DIRECT, INDIREC
      +                          T,
    75                           ; INCIDENTAL, SPECIAL, EXEMPLARY, OR CONSEQUENTIAL DAMAGES (INCLUDING BUT NOT LIMITED TO
    76                           ; PROCUREMENT OF SUBSTITUTE GOODS OR SERVICES; LOSS OF USE, DATA OR PROFITS; OR BUSINESS
    77                           ; INTERRUPTION) HOWSOEVER CAUSED AND ON ANY THEORY OF LIABILITY, WHETHER IN CONTRACT, ST
      +                          RICT
    78                           ; LIABILITY, OR TORT (INCLUDING NEGLIGENCE OR OTHERWISE) ARISING IN ANY WAY OUT OF THE U
      +                          SE OF
    79                           ; THIS SOFTWARE, EVEN IF ADVISED OF THE POSSIBILITY OF SUCH DAMAGE.
    80                           ; 
    81                           ; 
    82                           ; Code-generator required, PIC16F15325 Definitions
    83                           ; 
    84                           ; SFR Addresses
    85  0000                     	;# 
    86  0001                     	;# 
    87  0002                     	;# 
    88  0003                     	;# 
    89  0004                     	;# 
    90  0005                     	;# 
    91  0006                     	;# 
    92  0007                     	;# 
    93  0008                     	;# 
    94  0009                     	;# 
    95  000A                     	;# 
    96  000B                     	;# 
    97  000C                     	;# 
    98  000E                     	;# 
    99  0012                     	;# 
   100  0014                     	;# 
   101  0018                     	;# 
   102  001A                     	;# 
   103  009B                     	;# 
   104  009B                     	;# 
   105  009C                     	;# 
   106  009D                     	;# 
   107  009E                     	;# 
   108  009F                     	;# 
   109  0119                     	;# 
   110  0119                     	;# 
   111  0119                     	;# 
   112  011A                     	;# 
   113  011A                     	;# 
   114  011A                     	;# 
   115  011B                     	;# 
   116  011B                     	;# 
   117  011B                     	;# 
   118  011B                     	;# 
   119  011B                     	;# 
   120  011C                     	;# 
   121  011C                     	;# 
   122  011C                     	;# 
   123  011D                     	;# 
   124  011D                     	;# 
   125  011D                     	;# 
   126  011E                     	;# 
   127  011E                     	;# 
   128  011E                     	;# 
   129  011F                     	;# 
   130  011F                     	;# 
   131  011F                     	;# 
   132  011F                     	;# 
   133  011F                     	;# 
   134  018C                     	;# 
   135  018D                     	;# 
   136  018E                     	;# 
   137  018F                     	;# 
   138  0190                     	;# 
   139  0191                     	;# 
   140  0192                     	;# 
   141  020C                     	;# 
   142  020C                     	;# 
   143  020D                     	;# 
   144  020E                     	;# 
   145  020F                     	;# 
   146  020F                     	;# 
   147  0210                     	;# 
   148  0210                     	;# 
   149  0211                     	;# 
   150  0211                     	;# 
   151  028C                     	;# 
   152  028C                     	;# 
   153  028D                     	;# 
   154  028D                     	;# 
   155  028E                     	;# 
   156  028F                     	;# 
   157  0290                     	;# 
   158  0291                     	;# 
   159  030C                     	;# 
   160  030C                     	;# 
   161  030D                     	;# 
   162  030E                     	;# 
   163  030F                     	;# 
   164  0310                     	;# 
   165  0310                     	;# 
   166  0311                     	;# 
   167  0312                     	;# 
   168  0313                     	;# 
   169  0314                     	;# 
   170  0314                     	;# 
   171  0315                     	;# 
   172  0316                     	;# 
   173  0318                     	;# 
   174  0318                     	;# 
   175  0319                     	;# 
   176  031A                     	;# 
   177  031C                     	;# 
   178  031C                     	;# 
   179  031D                     	;# 
   180  031E                     	;# 
   181  038C                     	;# 
   182  038C                     	;# 
   183  038D                     	;# 
   184  038E                     	;# 
   185  058C                     	;# 
   186  058C                     	;# 
   187  058D                     	;# 
   188  058E                     	;# 
   189  058F                     	;# 
   190  058F                     	;# 
   191  0590                     	;# 
   192  0591                     	;# 
   193  0592                     	;# 
   194  0593                     	;# 
   195  059C                     	;# 
   196  059C                     	;# 
   197  059D                     	;# 
   198  059D                     	;# 
   199  059E                     	;# 
   200  059F                     	;# 
   201  060C                     	;# 
   202  060D                     	;# 
   203  060E                     	;# 
   204  060F                     	;# 
   205  0610                     	;# 
   206  0611                     	;# 
   207  0612                     	;# 
   208  0613                     	;# 
   209  0614                     	;# 
   210  070C                     	;# 
   211  070D                     	;# 
   212  070E                     	;# 
   213  070F                     	;# 
   214  0710                     	;# 
   215  0711                     	;# 
   216  0712                     	;# 
   217  0713                     	;# 
   218  0716                     	;# 
   219  0717                     	;# 
   220  0718                     	;# 
   221  0719                     	;# 
   222  071A                     	;# 
   223  071B                     	;# 
   224  071C                     	;# 
   225  071D                     	;# 
   226  0796                     	;# 
   227  0797                     	;# 
   228  0798                     	;# 
   229  0799                     	;# 
   230  079A                     	;# 
   231  079B                     	;# 
   232  080C                     	;# 
   233  080D                     	;# 
   234  080E                     	;# 
   235  080F                     	;# 
   236  0810                     	;# 
   237  0811                     	;# 
   238  0812                     	;# 
   239  0813                     	;# 
   240  0814                     	;# 
   241  081A                     	;# 
   242  081A                     	;# 
   243  081B                     	;# 
   244  081C                     	;# 
   245  081C                     	;# 
   246  081D                     	;# 
   247  081E                     	;# 
   248  081F                     	;# 
   249  088C                     	;# 
   250  088D                     	;# 
   251  088E                     	;# 
   252  088F                     	;# 
   253  0890                     	;# 
   254  0891                     	;# 
   255  0892                     	;# 
   256  0893                     	;# 
   257  0895                     	;# 
   258  0896                     	;# 
   259  090C                     	;# 
   260  090E                     	;# 
   261  090F                     	;# 
   262  091F                     	;# 
   263  098F                     	;# 
   264  098F                     	;# 
   265  0990                     	;# 
   266  0991                     	;# 
   267  0992                     	;# 
   268  0993                     	;# 
   269  0994                     	;# 
   270  0995                     	;# 
   271  0996                     	;# 
   272  0997                     	;# 
   273  0A19                     	;# 
   274  0A19                     	;# 
   275  0A1A                     	;# 
   276  0A1A                     	;# 
   277  0A1B                     	;# 
   278  0A1B                     	;# 
   279  0A1B                     	;# 
   280  0A1C                     	;# 
   281  0A1C                     	;# 
   282  0A1D                     	;# 
   283  0A1D                     	;# 
   284  0A1E                     	;# 
   285  0A1E                     	;# 
   286  0A1F                     	;# 
   287  0A1F                     	;# 
   288  0A1F                     	;# 
   289  1E0F                     	;# 
   290  1E10                     	;# 
   291  1E11                     	;# 
   292  1E12                     	;# 
   293  1E13                     	;# 
   294  1E14                     	;# 
   295  1E15                     	;# 
   296  1E16                     	;# 
   297  1E17                     	;# 
   298  1E18                     	;# 
   299  1E19                     	;# 
   300  1E1A                     	;# 
   301  1E1B                     	;# 
   302  1E1C                     	;# 
   303  1E1D                     	;# 
   304  1E1E                     	;# 
   305  1E1F                     	;# 
   306  1E20                     	;# 
   307  1E21                     	;# 
   308  1E22                     	;# 
   309  1E23                     	;# 
   310  1E24                     	;# 
   311  1E25                     	;# 
   312  1E26                     	;# 
   313  1E27                     	;# 
   314  1E28                     	;# 
   315  1E29                     	;# 
   316  1E2A                     	;# 
   317  1E2B                     	;# 
   318  1E2C                     	;# 
   319  1E2D                     	;# 
   320  1E2E                     	;# 
   321  1E2F                     	;# 
   322  1E30                     	;# 
   323  1E31                     	;# 
   324  1E32                     	;# 
   325  1E33                     	;# 
   326  1E34                     	;# 
   327  1E35                     	;# 
   328  1E36                     	;# 
   329  1E37                     	;# 
   330  1E8F                     	;# 
   331  1E90                     	;# 
   332  1E91                     	;# 
   333  1E92                     	;# 
   334  1E93                     	;# 
   335  1E9C                     	;# 
   336  1EA1                     	;# 
   337  1EA2                     	;# 
   338  1EB1                     	;# 
   339  1EBB                     	;# 
   340  1EBC                     	;# 
   341  1EBD                     	;# 
   342  1EBE                     	;# 
   343  1EC3                     	;# 
   344  1EC5                     	;# 
   345  1EC6                     	;# 
   346  1EC7                     	;# 
   347  1ECB                     	;# 
   348  1ECC                     	;# 
   349  1ECD                     	;# 
   350  1ECE                     	;# 
   351  1F10                     	;# 
   352  1F11                     	;# 
   353  1F12                     	;# 
   354  1F13                     	;# 
   355  1F14                     	;# 
   356  1F15                     	;# 
   357  1F20                     	;# 
   358  1F21                     	;# 
   359  1F22                     	;# 
   360  1F23                     	;# 
   361  1F24                     	;# 
   362  1F25                     	;# 
   363  1F38                     	;# 
   364  1F39                     	;# 
   365  1F3A                     	;# 
   366  1F3B                     	;# 
   367  1F3C                     	;# 
   368  1F3D                     	;# 
   369  1F3E                     	;# 
   370  1F3F                     	;# 
   371  1F4E                     	;# 
   372  1F4F                     	;# 
   373  1F50                     	;# 
   374  1F51                     	;# 
   375  1F52                     	;# 
   376  1F53                     	;# 
   377  1F54                     	;# 
   378  1F55                     	;# 
   379  1FE4                     	;# 
   380  1FE5                     	;# 
   381  1FE6                     	;# 
   382  1FE7                     	;# 
   383  1FE8                     	;# 
   384  1FE8                     	;# 
   385  1FE9                     	;# 
   386  1FEA                     	;# 
   387  1FEA                     	;# 
   388  1FEB                     	;# 
   389  1FED                     	;# 
   390  1FEE                     	;# 
   391  1FEF                     	;# 
   392  0000                     	;# 
   393  0001                     	;# 
   394  0002                     	;# 
   395  0003                     	;# 
   396  0004                     	;# 
   397  0005                     	;# 
   398  0006                     	;# 
   399  0007                     	;# 
   400  0008                     	;# 
   401  0009                     	;# 
   402  000A                     	;# 
   403  000B                     	;# 
   404  000C                     	;# 
   405  000E                     	;# 
   406  0012                     	;# 
   407  0014                     	;# 
   408  0018                     	;# 
   409  001A                     	;# 
   410  009B                     	;# 
   411  009B                     	;# 
   412  009C                     	;# 
   413  009D                     	;# 
   414  009E                     	;# 
   415  009F                     	;# 
   416  0119                     	;# 
   417  0119                     	;# 
   418  0119                     	;# 
   419  011A                     	;# 
   420  011A                     	;# 
   421  011A                     	;# 
   422  011B                     	;# 
   423  011B                     	;# 
   424  011B                     	;# 
   425  011B                     	;# 
   426  011B                     	;# 
   427  011C                     	;# 
   428  011C                     	;# 
   429  011C                     	;# 
   430  011D                     	;# 
   431  011D                     	;# 
   432  011D                     	;# 
   433  011E                     	;# 
   434  011E                     	;# 
   435  011E                     	;# 
   436  011F                     	;# 
   437  011F                     	;# 
   438  011F                     	;# 
   439  011F                     	;# 
   440  011F                     	;# 
   441  018C                     	;# 
   442  018D                     	;# 
   443  018E                     	;# 
   444  018F                     	;# 
   445  0190                     	;# 
   446  0191                     	;# 
   447  0192                     	;# 
   448  020C                     	;# 
   449  020C                     	;# 
   450  020D                     	;# 
   451  020E                     	;# 
   452  020F                     	;# 
   453  020F                     	;# 
   454  0210                     	;# 
   455  0210                     	;# 
   456  0211                     	;# 
   457  0211                     	;# 
   458  028C                     	;# 
   459  028C                     	;# 
   460  028D                     	;# 
   461  028D                     	;# 
   462  028E                     	;# 
   463  028F                     	;# 
   464  0290                     	;# 
   465  0291                     	;# 
   466  030C                     	;# 
   467  030C                     	;# 
   468  030D                     	;# 
   469  030E                     	;# 
   470  030F                     	;# 
   471  0310                     	;# 
   472  0310                     	;# 
   473  0311                     	;# 
   474  0312                     	;# 
   475  0313                     	;# 
   476  0314                     	;# 
   477  0314                     	;# 
   478  0315                     	;# 
   479  0316                     	;# 
   480  0318                     	;# 
   481  0318                     	;# 
   482  0319                     	;# 
   483  031A                     	;# 
   484  031C                     	;# 
   485  031C                     	;# 
   486  031D                     	;# 
   487  031E                     	;# 
   488  038C                     	;# 
   489  038C                     	;# 
   490  038D                     	;# 
   491  038E                     	;# 
   492  058C                     	;# 
   493  058C                     	;# 
   494  058D                     	;# 
   495  058E                     	;# 
   496  058F                     	;# 
   497  058F                     	;# 
   498  0590                     	;# 
   499  0591                     	;# 
   500  0592                     	;# 
   501  0593                     	;# 
   502  059C                     	;# 
   503  059C                     	;# 
   504  059D                     	;# 
   505  059D                     	;# 
   506  059E                     	;# 
   507  059F                     	;# 
   508  060C                     	;# 
   509  060D                     	;# 
   510  060E                     	;# 
   511  060F                     	;# 
   512  0610                     	;# 
   513  0611                     	;# 
   514  0612                     	;# 
   515  0613                     	;# 
   516  0614                     	;# 
   517  070C                     	;# 
   518  070D                     	;# 
   519  070E                     	;# 
   520  070F                     	;# 
   521  0710                     	;# 
   522  0711                     	;# 
   523  0712                     	;# 
   524  0713                     	;# 
   525  0716                     	;# 
   526  0717                     	;# 
   527  0718                     	;# 
   528  0719                     	;# 
   529  071A                     	;# 
   530  071B                     	;# 
   531  071C                     	;# 
   532  071D                     	;# 
   533  0796                     	;# 
   534  0797                     	;# 
   535  0798                     	;# 
   536  0799                     	;# 
   537  079A                     	;# 
   538  079B                     	;# 
   539  080C                     	;# 
   540  080D                     	;# 
   541  080E                     	;# 
   542  080F                     	;# 
   543  0810                     	;# 
   544  0811                     	;# 
   545  0812                     	;# 
   546  0813                     	;# 
   547  0814                     	;# 
   548  081A                     	;# 
   549  081A                     	;# 
   550  081B                     	;# 
   551  081C                     	;# 
   552  081C                     	;# 
   553  081D                     	;# 
   554  081E                     	;# 
   555  081F                     	;# 
   556  088C                     	;# 
   557  088D                     	;# 
   558  088E                     	;# 
   559  088F                     	;# 
   560  0890                     	;# 
   561  0891                     	;# 
   562  0892                     	;# 
   563  0893                     	;# 
   564  0895                     	;# 
   565  0896                     	;# 
   566  090C                     	;# 
   567  090E                     	;# 
   568  090F                     	;# 
   569  091F                     	;# 
   570  098F                     	;# 
   571  098F                     	;# 
   572  0990                     	;# 
   573  0991                     	;# 
   574  0992                     	;# 
   575  0993                     	;# 
   576  0994                     	;# 
   577  0995                     	;# 
   578  0996                     	;# 
   579  0997                     	;# 
   580  0A19                     	;# 
   581  0A19                     	;# 
   582  0A1A                     	;# 
   583  0A1A                     	;# 
   584  0A1B                     	;# 
   585  0A1B                     	;# 
   586  0A1B                     	;# 
   587  0A1C                     	;# 
   588  0A1C                     	;# 
   589  0A1D                     	;# 
   590  0A1D                     	;# 
   591  0A1E                     	;# 
   592  0A1E                     	;# 
   593  0A1F                     	;# 
   594  0A1F                     	;# 
   595  0A1F                     	;# 
   596  1E0F                     	;# 
   597  1E10                     	;# 
   598  1E11                     	;# 
   599  1E12                     	;# 
   600  1E13                     	;# 
   601  1E14                     	;# 
   602  1E15                     	;# 
   603  1E16                     	;# 
   604  1E17                     	;# 
   605  1E18                     	;# 
   606  1E19                     	;# 
   607  1E1A                     	;# 
   608  1E1B                     	;# 
   609  1E1C                     	;# 
   610  1E1D                     	;# 
   611  1E1E                     	;# 
   612  1E1F                     	;# 
   613  1E20                     	;# 
   614  1E21                     	;# 
   615  1E22                     	;# 
   616  1E23                     	;# 
   617  1E24                     	;# 
   618  1E25                     	;# 
   619  1E26                     	;# 
   620  1E27                     	;# 
   621  1E28                     	;# 
   622  1E29                     	;# 
   623  1E2A                     	;# 
   624  1E2B                     	;# 
   625  1E2C                     	;# 
   626  1E2D                     	;# 
   627  1E2E                     	;# 
   628  1E2F                     	;# 
   629  1E30                     	;# 
   630  1E31                     	;# 
   631  1E32                     	;# 
   632  1E33                     	;# 
   633  1E34                     	;# 
   634  1E35                     	;# 
   635  1E36                     	;# 
   636  1E37                     	;# 
   637  1E8F                     	;# 
   638  1E90                     	;# 
   639  1E91                     	;# 
   640  1E92                     	;# 
   641  1E93                     	;# 
   642  1E9C                     	;# 
   643  1EA1                     	;# 
   644  1EA2                     	;# 
   645  1EB1                     	;# 
   646  1EBB                     	;# 
   647  1EBC                     	;# 
   648  1EBD                     	;# 
   649  1EBE                     	;# 
   650  1EC3                     	;# 
   651  1EC5                     	;# 
   652  1EC6                     	;# 
   653  1EC7                     	;# 
   654  1ECB                     	;# 
   655  1ECC                     	;# 
   656  1ECD                     	;# 
   657  1ECE                     	;# 
   658  1F10                     	;# 
   659  1F11                     	;# 
   660  1F12                     	;# 
   661  1F13                     	;# 
   662  1F14                     	;# 
   663  1F15                     	;# 
   664  1F20                     	;# 
   665  1F21                     	;# 
   666  1F22                     	;# 
   667  1F23                     	;# 
   668  1F24                     	;# 
   669  1F25                     	;# 
   670  1F38                     	;# 
   671  1F39                     	;# 
   672  1F3A                     	;# 
   673  1F3B                     	;# 
   674  1F3C                     	;# 
   675  1F3D                     	;# 
   676  1F3E                     	;# 
   677  1F3F                     	;# 
   678  1F4E                     	;# 
   679  1F4F                     	;# 
   680  1F50                     	;# 
   681  1F51                     	;# 
   682  1F52                     	;# 
   683  1F53                     	;# 
   684  1F54                     	;# 
   685  1F55                     	;# 
   686  1FE4                     	;# 
   687  1FE5                     	;# 
   688  1FE6                     	;# 
   689  1FE7                     	;# 
   690  1FE8                     	;# 
   691  1FE8                     	;# 
   692  1FE9                     	;# 
   693  1FEA                     	;# 
   694  1FEA                     	;# 
   695  1FEB                     	;# 
   696  1FED                     	;# 
   697  1FEE                     	;# 
   698  1FEF                     	;# 
   699  0000                     	;# 
   700  0001                     	;# 
   701  0002                     	;# 
   702  0003                     	;# 
   703  0004                     	;# 
   704  0005                     	;# 
   705  0006                     	;# 
   706  0007                     	;# 
   707  0008                     	;# 
   708  0009                     	;# 
   709  000A                     	;# 
   710  000B                     	;# 
   711  000C                     	;# 
   712  000E                     	;# 
   713  0012                     	;# 
   714  0014                     	;# 
   715  0018                     	;# 
   716  001A                     	;# 
   717  009B                     	;# 
   718  009B                     	;# 
   719  009C                     	;# 
   720  009D                     	;# 
   721  009E                     	;# 
   722  009F                     	;# 
   723  0119                     	;# 
   724  0119                     	;# 
   725  0119                     	;# 
   726  011A                     	;# 
   727  011A                     	;# 
   728  011A                     	;# 
   729  011B                     	;# 
   730  011B                     	;# 
   731  011B                     	;# 
   732  011B                     	;# 
   733  011B                     	;# 
   734  011C                     	;# 
   735  011C                     	;# 
   736  011C                     	;# 
   737  011D                     	;# 
   738  011D                     	;# 
   739  011D                     	;# 
   740  011E                     	;# 
   741  011E                     	;# 
   742  011E                     	;# 
   743  011F                     	;# 
   744  011F                     	;# 
   745  011F                     	;# 
   746  011F                     	;# 
   747  011F                     	;# 
   748  018C                     	;# 
   749  018D                     	;# 
   750  018E                     	;# 
   751  018F                     	;# 
   752  0190                     	;# 
   753  0191                     	;# 
   754  0192                     	;# 
   755  020C                     	;# 
   756  020C                     	;# 
   757  020D                     	;# 
   758  020E                     	;# 
   759  020F                     	;# 
   760  020F                     	;# 
   761  0210                     	;# 
   762  0210                     	;# 
   763  0211                     	;# 
   764  0211                     	;# 
   765  028C                     	;# 
   766  028C                     	;# 
   767  028D                     	;# 
   768  028D                     	;# 
   769  028E                     	;# 
   770  028F                     	;# 
   771  0290                     	;# 
   772  0291                     	;# 
   773  030C                     	;# 
   774  030C                     	;# 
   775  030D                     	;# 
   776  030E                     	;# 
   777  030F                     	;# 
   778  0310                     	;# 
   779  0310                     	;# 
   780  0311                     	;# 
   781  0312                     	;# 
   782  0313                     	;# 
   783  0314                     	;# 
   784  0314                     	;# 
   785  0315                     	;# 
   786  0316                     	;# 
   787  0318                     	;# 
   788  0318                     	;# 
   789  0319                     	;# 
   790  031A                     	;# 
   791  031C                     	;# 
   792  031C                     	;# 
   793  031D                     	;# 
   794  031E                     	;# 
   795  038C                     	;# 
   796  038C                     	;# 
   797  038D                     	;# 
   798  038E                     	;# 
   799  058C                     	;# 
   800  058C                     	;# 
   801  058D                     	;# 
   802  058E                     	;# 
   803  058F                     	;# 
   804  058F                     	;# 
   805  0590                     	;# 
   806  0591                     	;# 
   807  0592                     	;# 
   808  0593                     	;# 
   809  059C                     	;# 
   810  059C                     	;# 
   811  059D                     	;# 
   812  059D                     	;# 
   813  059E                     	;# 
   814  059F                     	;# 
   815  060C                     	;# 
   816  060D                     	;# 
   817  060E                     	;# 
   818  060F                     	;# 
   819  0610                     	;# 
   820  0611                     	;# 
   821  0612                     	;# 
   822  0613                     	;# 
   823  0614                     	;# 
   824  070C                     	;# 
   825  070D                     	;# 
   826  070E                     	;# 
   827  070F                     	;# 
   828  0710                     	;# 
   829  0711                     	;# 
   830  0712                     	;# 
   831  0713                     	;# 
   832  0716                     	;# 
   833  0717                     	;# 
   834  0718                     	;# 
   835  0719                     	;# 
   836  071A                     	;# 
   837  071B                     	;# 
   838  071C                     	;# 
   839  071D                     	;# 
   840  0796                     	;# 
   841  0797                     	;# 
   842  0798                     	;# 
   843  0799                     	;# 
   844  079A                     	;# 
   845  079B                     	;# 
   846  080C                     	;# 
   847  080D                     	;# 
   848  080E                     	;# 
   849  080F                     	;# 
   850  0810                     	;# 
   851  0811                     	;# 
   852  0812                     	;# 
   853  0813                     	;# 
   854  0814                     	;# 
   855  081A                     	;# 
   856  081A                     	;# 
   857  081B                     	;# 
   858  081C                     	;# 
   859  081C                     	;# 
   860  081D                     	;# 
   861  081E                     	;# 
   862  081F                     	;# 
   863  088C                     	;# 
   864  088D                     	;# 
   865  088E                     	;# 
   866  088F                     	;# 
   867  0890                     	;# 
   868  0891                     	;# 
   869  0892                     	;# 
   870  0893                     	;# 
   871  0895                     	;# 
   872  0896                     	;# 
   873  090C                     	;# 
   874  090E                     	;# 
   875  090F                     	;# 
   876  091F                     	;# 
   877  098F                     	;# 
   878  098F                     	;# 
   879  0990                     	;# 
   880  0991                     	;# 
   881  0992                     	;# 
   882  0993                     	;# 
   883  0994                     	;# 
   884  0995                     	;# 
   885  0996                     	;# 
   886  0997                     	;# 
   887  0A19                     	;# 
   888  0A19                     	;# 
   889  0A1A                     	;# 
   890  0A1A                     	;# 
   891  0A1B                     	;# 
   892  0A1B                     	;# 
   893  0A1B                     	;# 
   894  0A1C                     	;# 
   895  0A1C                     	;# 
   896  0A1D                     	;# 
   897  0A1D                     	;# 
   898  0A1E                     	;# 
   899  0A1E                     	;# 
   900  0A1F                     	;# 
   901  0A1F                     	;# 
   902  0A1F                     	;# 
   903  1E0F                     	;# 
   904  1E10                     	;# 
   905  1E11                     	;# 
   906  1E12                     	;# 
   907  1E13                     	;# 
   908  1E14                     	;# 
   909  1E15                     	;# 
   910  1E16                     	;# 
   911  1E17                     	;# 
   912  1E18                     	;# 
   913  1E19                     	;# 
   914  1E1A                     	;# 
   915  1E1B                     	;# 
   916  1E1C                     	;# 
   917  1E1D                     	;# 
   918  1E1E                     	;# 
   919  1E1F                     	;# 
   920  1E20                     	;# 
   921  1E21                     	;# 
   922  1E22                     	;# 
   923  1E23                     	;# 
   924  1E24                     	;# 
   925  1E25                     	;# 
   926  1E26                     	;# 
   927  1E27                     	;# 
   928  1E28                     	;# 
   929  1E29                     	;# 
   930  1E2A                     	;# 
   931  1E2B                     	;# 
   932  1E2C                     	;# 
   933  1E2D                     	;# 
   934  1E2E                     	;# 
   935  1E2F                     	;# 
   936  1E30                     	;# 
   937  1E31                     	;# 
   938  1E32                     	;# 
   939  1E33                     	;# 
   940  1E34                     	;# 
   941  1E35                     	;# 
   942  1E36                     	;# 
   943  1E37                     	;# 
   944  1E8F                     	;# 
   945  1E90                     	;# 
   946  1E91                     	;# 
   947  1E92                     	;# 
   948  1E93                     	;# 
   949  1E9C                     	;# 
   950  1EA1                     	;# 
   951  1EA2                     	;# 
   952  1EB1                     	;# 
   953  1EBB                     	;# 
   954  1EBC                     	;# 
   955  1EBD                     	;# 
   956  1EBE                     	;# 
   957  1EC3                     	;# 
   958  1EC5                     	;# 
   959  1EC6                     	;# 
   960  1EC7                     	;# 
   961  1ECB                     	;# 
   962  1ECC                     	;# 
   963  1ECD                     	;# 
   964  1ECE                     	;# 
   965  1F10                     	;# 
   966  1F11                     	;# 
   967  1F12                     	;# 
   968  1F13                     	;# 
   969  1F14                     	;# 
   970  1F15                     	;# 
   971  1F20                     	;# 
   972  1F21                     	;# 
   973  1F22                     	;# 
   974  1F23                     	;# 
   975  1F24                     	;# 
   976  1F25                     	;# 
   977  1F38                     	;# 
   978  1F39                     	;# 
   979  1F3A                     	;# 
   980  1F3B                     	;# 
   981  1F3C                     	;# 
   982  1F3D                     	;# 
   983  1F3E                     	;# 
   984  1F3F                     	;# 
   985  1F4E                     	;# 
   986  1F4F                     	;# 
   987  1F50                     	;# 
   988  1F51                     	;# 
   989  1F52                     	;# 
   990  1F53                     	;# 
   991  1F54                     	;# 
   992  1F55                     	;# 
   993  1FE4                     	;# 
   994  1FE5                     	;# 
   995  1FE6                     	;# 
   996  1FE7                     	;# 
   997  1FE8                     	;# 
   998  1FE8                     	;# 
   999  1FE9                     	;# 
  1000  1FEA                     	;# 
  1001  1FEA                     	;# 
  1002  1FEB                     	;# 
  1003  1FED                     	;# 
  1004  1FEE                     	;# 
  1005  1FEF                     	;# 
  1006  0000                     	;# 
  1007  0001                     	;# 
  1008  0002                     	;# 
  1009  0003                     	;# 
  1010  0004                     	;# 
  1011  0005                     	;# 
  1012  0006                     	;# 
  1013  0007                     	;# 
  1014  0008                     	;# 
  1015  0009                     	;# 
  1016  000A                     	;# 
  1017  000B                     	;# 
  1018  000C                     	;# 
  1019  000E                     	;# 
  1020  0012                     	;# 
  1021  0014                     	;# 
  1022  0018                     	;# 
  1023  001A                     	;# 
  1024  009B                     	;# 
  1025  009B                     	;# 
  1026  009C                     	;# 
  1027  009D                     	;# 
  1028  009E                     	;# 
  1029  009F                     	;# 
  1030  0119                     	;# 
  1031  0119                     	;# 
  1032  0119                     	;# 
  1033  011A                     	;# 
  1034  011A                     	;# 
  1035  011A                     	;# 
  1036  011B                     	;# 
  1037  011B                     	;# 
  1038  011B                     	;# 
  1039  011B                     	;# 
  1040  011B                     	;# 
  1041  011C                     	;# 
  1042  011C                     	;# 
  1043  011C                     	;# 
  1044  011D                     	;# 
  1045  011D                     	;# 
  1046  011D                     	;# 
  1047  011E                     	;# 
  1048  011E                     	;# 
  1049  011E                     	;# 
  1050  011F                     	;# 
  1051  011F                     	;# 
  1052  011F                     	;# 
  1053  011F                     	;# 
  1054  011F                     	;# 
  1055  018C                     	;# 
  1056  018D                     	;# 
  1057  018E                     	;# 
  1058  018F                     	;# 
  1059  0190                     	;# 
  1060  0191                     	;# 
  1061  0192                     	;# 
  1062  020C                     	;# 
  1063  020C                     	;# 
  1064  020D                     	;# 
  1065  020E                     	;# 
  1066  020F                     	;# 
  1067  020F                     	;# 
  1068  0210                     	;# 
  1069  0210                     	;# 
  1070  0211                     	;# 
  1071  0211                     	;# 
  1072  028C                     	;# 
  1073  028C                     	;# 
  1074  028D                     	;# 
  1075  028D                     	;# 
  1076  028E                     	;# 
  1077  028F                     	;# 
  1078  0290                     	;# 
  1079  0291                     	;# 
  1080  030C                     	;# 
  1081  030C                     	;# 
  1082  030D                     	;# 
  1083  030E                     	;# 
  1084  030F                     	;# 
  1085  0310                     	;# 
  1086  0310                     	;# 
  1087  0311                     	;# 
  1088  0312                     	;# 
  1089  0313                     	;# 
  1090  0314                     	;# 
  1091  0314                     	;# 
  1092  0315                     	;# 
  1093  0316                     	;# 
  1094  0318                     	;# 
  1095  0318                     	;# 
  1096  0319                     	;# 
  1097  031A                     	;# 
  1098  031C                     	;# 
  1099  031C                     	;# 
  1100  031D                     	;# 
  1101  031E                     	;# 
  1102  038C                     	;# 
  1103  038C                     	;# 
  1104  038D                     	;# 
  1105  038E                     	;# 
  1106  058C                     	;# 
  1107  058C                     	;# 
  1108  058D                     	;# 
  1109  058E                     	;# 
  1110  058F                     	;# 
  1111  058F                     	;# 
  1112  0590                     	;# 
  1113  0591                     	;# 
  1114  0592                     	;# 
  1115  0593                     	;# 
  1116  059C                     	;# 
  1117  059C                     	;# 
  1118  059D                     	;# 
  1119  059D                     	;# 
  1120  059E                     	;# 
  1121  059F                     	;# 
  1122  060C                     	;# 
  1123  060D                     	;# 
  1124  060E                     	;# 
  1125  060F                     	;# 
  1126  0610                     	;# 
  1127  0611                     	;# 
  1128  0612                     	;# 
  1129  0613                     	;# 
  1130  0614                     	;# 
  1131  070C                     	;# 
  1132  070D                     	;# 
  1133  070E                     	;# 
  1134  070F                     	;# 
  1135  0710                     	;# 
  1136  0711                     	;# 
  1137  0712                     	;# 
  1138  0713                     	;# 
  1139  0716                     	;# 
  1140  0717                     	;# 
  1141  0718                     	;# 
  1142  0719                     	;# 
  1143  071A                     	;# 
  1144  071B                     	;# 
  1145  071C                     	;# 
  1146  071D                     	;# 
  1147  0796                     	;# 
  1148  0797                     	;# 
  1149  0798                     	;# 
  1150  0799                     	;# 
  1151  079A                     	;# 
  1152  079B                     	;# 
  1153  080C                     	;# 
  1154  080D                     	;# 
  1155  080E                     	;# 
  1156  080F                     	;# 
  1157  0810                     	;# 
  1158  0811                     	;# 
  1159  0812                     	;# 
  1160  0813                     	;# 
  1161  0814                     	;# 
  1162  081A                     	;# 
  1163  081A                     	;# 
  1164  081B                     	;# 
  1165  081C                     	;# 
  1166  081C                     	;# 
  1167  081D                     	;# 
  1168  081E                     	;# 
  1169  081F                     	;# 
  1170  088C                     	;# 
  1171  088D                     	;# 
  1172  088E                     	;# 
  1173  088F                     	;# 
  1174  0890                     	;# 
  1175  0891                     	;# 
  1176  0892                     	;# 
  1177  0893                     	;# 
  1178  0895                     	;# 
  1179  0896                     	;# 
  1180  090C                     	;# 
  1181  090E                     	;# 
  1182  090F                     	;# 
  1183  091F                     	;# 
  1184  098F                     	;# 
  1185  098F                     	;# 
  1186  0990                     	;# 
  1187  0991                     	;# 
  1188  0992                     	;# 
  1189  0993                     	;# 
  1190  0994                     	;# 
  1191  0995                     	;# 
  1192  0996                     	;# 
  1193  0997                     	;# 
  1194  0A19                     	;# 
  1195  0A19                     	;# 
  1196  0A1A                     	;# 
  1197  0A1A                     	;# 
  1198  0A1B                     	;# 
  1199  0A1B                     	;# 
  1200  0A1B                     	;# 
  1201  0A1C                     	;# 
  1202  0A1C                     	;# 
  1203  0A1D                     	;# 
  1204  0A1D                     	;# 
  1205  0A1E                     	;# 
  1206  0A1E                     	;# 
  1207  0A1F                     	;# 
  1208  0A1F                     	;# 
  1209  0A1F                     	;# 
  1210  1E0F                     	;# 
  1211  1E10                     	;# 
  1212  1E11                     	;# 
  1213  1E12                     	;# 
  1214  1E13                     	;# 
  1215  1E14                     	;# 
  1216  1E15                     	;# 
  1217  1E16                     	;# 
  1218  1E17                     	;# 
  1219  1E18                     	;# 
  1220  1E19                     	;# 
  1221  1E1A                     	;# 
  1222  1E1B                     	;# 
  1223  1E1C                     	;# 
  1224  1E1D                     	;# 
  1225  1E1E                     	;# 
  1226  1E1F                     	;# 
  1227  1E20                     	;# 
  1228  1E21                     	;# 
  1229  1E22                     	;# 
  1230  1E23                     	;# 
  1231  1E24                     	;# 
  1232  1E25                     	;# 
  1233  1E26                     	;# 
  1234  1E27                     	;# 
  1235  1E28                     	;# 
  1236  1E29                     	;# 
  1237  1E2A                     	;# 
  1238  1E2B                     	;# 
  1239  1E2C                     	;# 
  1240  1E2D                     	;# 
  1241  1E2E                     	;# 
  1242  1E2F                     	;# 
  1243  1E30                     	;# 
  1244  1E31                     	;# 
  1245  1E32                     	;# 
  1246  1E33                     	;# 
  1247  1E34                     	;# 
  1248  1E35                     	;# 
  1249  1E36                     	;# 
  1250  1E37                     	;# 
  1251  1E8F                     	;# 
  1252  1E90                     	;# 
  1253  1E91                     	;# 
  1254  1E92                     	;# 
  1255  1E93                     	;# 
  1256  1E9C                     	;# 
  1257  1EA1                     	;# 
  1258  1EA2                     	;# 
  1259  1EB1                     	;# 
  1260  1EBB                     	;# 
  1261  1EBC                     	;# 
  1262  1EBD                     	;# 
  1263  1EBE                     	;# 
  1264  1EC3                     	;# 
  1265  1EC5                     	;# 
  1266  1EC6                     	;# 
  1267  1EC7                     	;# 
  1268  1ECB                     	;# 
  1269  1ECC                     	;# 
  1270  1ECD                     	;# 
  1271  1ECE                     	;# 
  1272  1F10                     	;# 
  1273  1F11                     	;# 
  1274  1F12                     	;# 
  1275  1F13                     	;# 
  1276  1F14                     	;# 
  1277  1F15                     	;# 
  1278  1F20                     	;# 
  1279  1F21                     	;# 
  1280  1F22                     	;# 
  1281  1F23                     	;# 
  1282  1F24                     	;# 
  1283  1F25                     	;# 
  1284  1F38                     	;# 
  1285  1F39                     	;# 
  1286  1F3A                     	;# 
  1287  1F3B                     	;# 
  1288  1F3C                     	;# 
  1289  1F3D                     	;# 
  1290  1F3E                     	;# 
  1291  1F3F                     	;# 
  1292  1F4E                     	;# 
  1293  1F4F                     	;# 
  1294  1F50                     	;# 
  1295  1F51                     	;# 
  1296  1F52                     	;# 
  1297  1F53                     	;# 
  1298  1F54                     	;# 
  1299  1F55                     	;# 
  1300  1FE4                     	;# 
  1301  1FE5                     	;# 
  1302  1FE6                     	;# 
  1303  1FE7                     	;# 
  1304  1FE8                     	;# 
  1305  1FE8                     	;# 
  1306  1FE9                     	;# 
  1307  1FEA                     	;# 
  1308  1FEA                     	;# 
  1309  1FEB                     	;# 
  1310  1FED                     	;# 
  1311  1FEE                     	;# 
  1312  1FEF                     	;# 
  1313  0000                     	;# 
  1314  0001                     	;# 
  1315  0002                     	;# 
  1316  0003                     	;# 
  1317  0004                     	;# 
  1318  0005                     	;# 
  1319  0006                     	;# 
  1320  0007                     	;# 
  1321  0008                     	;# 
  1322  0009                     	;# 
  1323  000A                     	;# 
  1324  000B                     	;# 
  1325  000C                     	;# 
  1326  000E                     	;# 
  1327  0012                     	;# 
  1328  0014                     	;# 
  1329  0018                     	;# 
  1330  001A                     	;# 
  1331  009B                     	;# 
  1332  009B                     	;# 
  1333  009C                     	;# 
  1334  009D                     	;# 
  1335  009E                     	;# 
  1336  009F                     	;# 
  1337  0119                     	;# 
  1338  0119                     	;# 
  1339  0119                     	;# 
  1340  011A                     	;# 
  1341  011A                     	;# 
  1342  011A                     	;# 
  1343  011B                     	;# 
  1344  011B                     	;# 
  1345  011B                     	;# 
  1346  011B                     	;# 
  1347  011B                     	;# 
  1348  011C                     	;# 
  1349  011C                     	;# 
  1350  011C                     	;# 
  1351  011D                     	;# 
  1352  011D                     	;# 
  1353  011D                     	;# 
  1354  011E                     	;# 
  1355  011E                     	;# 
  1356  011E                     	;# 
  1357  011F                     	;# 
  1358  011F                     	;# 
  1359  011F                     	;# 
  1360  011F                     	;# 
  1361  011F                     	;# 
  1362  018C                     	;# 
  1363  018D                     	;# 
  1364  018E                     	;# 
  1365  018F                     	;# 
  1366  0190                     	;# 
  1367  0191                     	;# 
  1368  0192                     	;# 
  1369  020C                     	;# 
  1370  020C                     	;# 
  1371  020D                     	;# 
  1372  020E                     	;# 
  1373  020F                     	;# 
  1374  020F                     	;# 
  1375  0210                     	;# 
  1376  0210                     	;# 
  1377  0211                     	;# 
  1378  0211                     	;# 
  1379  028C                     	;# 
  1380  028C                     	;# 
  1381  028D                     	;# 
  1382  028D                     	;# 
  1383  028E                     	;# 
  1384  028F                     	;# 
  1385  0290                     	;# 
  1386  0291                     	;# 
  1387  030C                     	;# 
  1388  030C                     	;# 
  1389  030D                     	;# 
  1390  030E                     	;# 
  1391  030F                     	;# 
  1392  0310                     	;# 
  1393  0310                     	;# 
  1394  0311                     	;# 
  1395  0312                     	;# 
  1396  0313                     	;# 
  1397  0314                     	;# 
  1398  0314                     	;# 
  1399  0315                     	;# 
  1400  0316                     	;# 
  1401  0318                     	;# 
  1402  0318                     	;# 
  1403  0319                     	;# 
  1404  031A                     	;# 
  1405  031C                     	;# 
  1406  031C                     	;# 
  1407  031D                     	;# 
  1408  031E                     	;# 
  1409  038C                     	;# 
  1410  038C                     	;# 
  1411  038D                     	;# 
  1412  038E                     	;# 
  1413  058C                     	;# 
  1414  058C                     	;# 
  1415  058D                     	;# 
  1416  058E                     	;# 
  1417  058F                     	;# 
  1418  058F                     	;# 
  1419  0590                     	;# 
  1420  0591                     	;# 
  1421  0592                     	;# 
  1422  0593                     	;# 
  1423  059C                     	;# 
  1424  059C                     	;# 
  1425  059D                     	;# 
  1426  059D                     	;# 
  1427  059E                     	;# 
  1428  059F                     	;# 
  1429  060C                     	;# 
  1430  060D                     	;# 
  1431  060E                     	;# 
  1432  060F                     	;# 
  1433  0610                     	;# 
  1434  0611                     	;# 
  1435  0612                     	;# 
  1436  0613                     	;# 
  1437  0614                     	;# 
  1438  070C                     	;# 
  1439  070D                     	;# 
  1440  070E                     	;# 
  1441  070F                     	;# 
  1442  0710                     	;# 
  1443  0711                     	;# 
  1444  0712                     	;# 
  1445  0713                     	;# 
  1446  0716                     	;# 
  1447  0717                     	;# 
  1448  0718                     	;# 
  1449  0719                     	;# 
  1450  071A                     	;# 
  1451  071B                     	;# 
  1452  071C                     	;# 
  1453  071D                     	;# 
  1454  0796                     	;# 
  1455  0797                     	;# 
  1456  0798                     	;# 
  1457  0799                     	;# 
  1458  079A                     	;# 
  1459  079B                     	;# 
  1460  080C                     	;# 
  1461  080D                     	;# 
  1462  080E                     	;# 
  1463  080F                     	;# 
  1464  0810                     	;# 
  1465  0811                     	;# 
  1466  0812                     	;# 
  1467  0813                     	;# 
  1468  0814                     	;# 
  1469  081A                     	;# 
  1470  081A                     	;# 
  1471  081B                     	;# 
  1472  081C                     	;# 
  1473  081C                     	;# 
  1474  081D                     	;# 
  1475  081E                     	;# 
  1476  081F                     	;# 
  1477  088C                     	;# 
  1478  088D                     	;# 
  1479  088E                     	;# 
  1480  088F                     	;# 
  1481  0890                     	;# 
  1482  0891                     	;# 
  1483  0892                     	;# 
  1484  0893                     	;# 
  1485  0895                     	;# 
  1486  0896                     	;# 
  1487  090C                     	;# 
  1488  090E                     	;# 
  1489  090F                     	;# 
  1490  091F                     	;# 
  1491  098F                     	;# 
  1492  098F                     	;# 
  1493  0990                     	;# 
  1494  0991                     	;# 
  1495  0992                     	;# 
  1496  0993                     	;# 
  1497  0994                     	;# 
  1498  0995                     	;# 
  1499  0996                     	;# 
  1500  0997                     	;# 
  1501  0A19                     	;# 
  1502  0A19                     	;# 
  1503  0A1A                     	;# 
  1504  0A1A                     	;# 
  1505  0A1B                     	;# 
  1506  0A1B                     	;# 
  1507  0A1B                     	;# 
  1508  0A1C                     	;# 
  1509  0A1C                     	;# 
  1510  0A1D                     	;# 
  1511  0A1D                     	;# 
  1512  0A1E                     	;# 
  1513  0A1E                     	;# 
  1514  0A1F                     	;# 
  1515  0A1F                     	;# 
  1516  0A1F                     	;# 
  1517  1E0F                     	;# 
  1518  1E10                     	;# 
  1519  1E11                     	;# 
  1520  1E12                     	;# 
  1521  1E13                     	;# 
  1522  1E14                     	;# 
  1523  1E15                     	;# 
  1524  1E16                     	;# 
  1525  1E17                     	;# 
  1526  1E18                     	;# 
  1527  1E19                     	;# 
  1528  1E1A                     	;# 
  1529  1E1B                     	;# 
  1530  1E1C                     	;# 
  1531  1E1D                     	;# 
  1532  1E1E                     	;# 
  1533  1E1F                     	;# 
  1534  1E20                     	;# 
  1535  1E21                     	;# 
  1536  1E22                     	;# 
  1537  1E23                     	;# 
  1538  1E24                     	;# 
  1539  1E25                     	;# 
  1540  1E26                     	;# 
  1541  1E27                     	;# 
  1542  1E28                     	;# 
  1543  1E29                     	;# 
  1544  1E2A                     	;# 
  1545  1E2B                     	;# 
  1546  1E2C                     	;# 
  1547  1E2D                     	;# 
  1548  1E2E                     	;# 
  1549  1E2F                     	;# 
  1550  1E30                     	;# 
  1551  1E31                     	;# 
  1552  1E32                     	;# 
  1553  1E33                     	;# 
  1554  1E34                     	;# 
  1555  1E35                     	;# 
  1556  1E36                     	;# 
  1557  1E37                     	;# 
  1558  1E8F                     	;# 
  1559  1E90                     	;# 
  1560  1E91                     	;# 
  1561  1E92                     	;# 
  1562  1E93                     	;# 
  1563  1E9C                     	;# 
  1564  1EA1                     	;# 
  1565  1EA2                     	;# 
  1566  1EB1                     	;# 
  1567  1EBB                     	;# 
  1568  1EBC                     	;# 
  1569  1EBD                     	;# 
  1570  1EBE                     	;# 
  1571  1EC3                     	;# 
  1572  1EC5                     	;# 
  1573  1EC6                     	;# 
  1574  1EC7                     	;# 
  1575  1ECB                     	;# 
  1576  1ECC                     	;# 
  1577  1ECD                     	;# 
  1578  1ECE                     	;# 
  1579  1F10                     	;# 
  1580  1F11                     	;# 
  1581  1F12                     	;# 
  1582  1F13                     	;# 
  1583  1F14                     	;# 
  1584  1F15                     	;# 
  1585  1F20                     	;# 
  1586  1F21                     	;# 
  1587  1F22                     	;# 
  1588  1F23                     	;# 
  1589  1F24                     	;# 
  1590  1F25                     	;# 
  1591  1F38                     	;# 
  1592  1F39                     	;# 
  1593  1F3A                     	;# 
  1594  1F3B                     	;# 
  1595  1F3C                     	;# 
  1596  1F3D                     	;# 
  1597  1F3E                     	;# 
  1598  1F3F                     	;# 
  1599  1F4E                     	;# 
  1600  1F4F                     	;# 
  1601  1F50                     	;# 
  1602  1F51                     	;# 
  1603  1F52                     	;# 
  1604  1F53                     	;# 
  1605  1F54                     	;# 
  1606  1F55                     	;# 
  1607  1FE4                     	;# 
  1608  1FE5                     	;# 
  1609  1FE6                     	;# 
  1610  1FE7                     	;# 
  1611  1FE8                     	;# 
  1612  1FE8                     	;# 
  1613  1FE9                     	;# 
  1614  1FEA                     	;# 
  1615  1FEA                     	;# 
  1616  1FEB                     	;# 
  1617  1FED                     	;# 
  1618  1FEE                     	;# 
  1619  1FEF                     	;# 
  1620  0000                     	;# 
  1621  0001                     	;# 
  1622  0002                     	;# 
  1623  0003                     	;# 
  1624  0004                     	;# 
  1625  0005                     	;# 
  1626  0006                     	;# 
  1627  0007                     	;# 
  1628  0008                     	;# 
  1629  0009                     	;# 
  1630  000A                     	;# 
  1631  000B                     	;# 
  1632  000C                     	;# 
  1633  000E                     	;# 
  1634  0012                     	;# 
  1635  0014                     	;# 
  1636  0018                     	;# 
  1637  001A                     	;# 
  1638  009B                     	;# 
  1639  009B                     	;# 
  1640  009C                     	;# 
  1641  009D                     	;# 
  1642  009E                     	;# 
  1643  009F                     	;# 
  1644  0119                     	;# 
  1645  0119                     	;# 
  1646  0119                     	;# 
  1647  011A                     	;# 
  1648  011A                     	;# 
  1649  011A                     	;# 
  1650  011B                     	;# 
  1651  011B                     	;# 
  1652  011B                     	;# 
  1653  011B                     	;# 
  1654  011B                     	;# 
  1655  011C                     	;# 
  1656  011C                     	;# 
  1657  011C                     	;# 
  1658  011D                     	;# 
  1659  011D                     	;# 
  1660  011D                     	;# 
  1661  011E                     	;# 
  1662  011E                     	;# 
  1663  011E                     	;# 
  1664  011F                     	;# 
  1665  011F                     	;# 
  1666  011F                     	;# 
  1667  011F                     	;# 
  1668  011F                     	;# 
  1669  018C                     	;# 
  1670  018D                     	;# 
  1671  018E                     	;# 
  1672  018F                     	;# 
  1673  0190                     	;# 
  1674  0191                     	;# 
  1675  0192                     	;# 
  1676  020C                     	;# 
  1677  020C                     	;# 
  1678  020D                     	;# 
  1679  020E                     	;# 
  1680  020F                     	;# 
  1681  020F                     	;# 
  1682  0210                     	;# 
  1683  0210                     	;# 
  1684  0211                     	;# 
  1685  0211                     	;# 
  1686  028C                     	;# 
  1687  028C                     	;# 
  1688  028D                     	;# 
  1689  028D                     	;# 
  1690  028E                     	;# 
  1691  028F                     	;# 
  1692  0290                     	;# 
  1693  0291                     	;# 
  1694  030C                     	;# 
  1695  030C                     	;# 
  1696  030D                     	;# 
  1697  030E                     	;# 
  1698  030F                     	;# 
  1699  0310                     	;# 
  1700  0310                     	;# 
  1701  0311                     	;# 
  1702  0312                     	;# 
  1703  0313                     	;# 
  1704  0314                     	;# 
  1705  0314                     	;# 
  1706  0315                     	;# 
  1707  0316                     	;# 
  1708  0318                     	;# 
  1709  0318                     	;# 
  1710  0319                     	;# 
  1711  031A                     	;# 
  1712  031C                     	;# 
  1713  031C                     	;# 
  1714  031D                     	;# 
  1715  031E                     	;# 
  1716  038C                     	;# 
  1717  038C                     	;# 
  1718  038D                     	;# 
  1719  038E                     	;# 
  1720  058C                     	;# 
  1721  058C                     	;# 
  1722  058D                     	;# 
  1723  058E                     	;# 
  1724  058F                     	;# 
  1725  058F                     	;# 
  1726  0590                     	;# 
  1727  0591                     	;# 
  1728  0592                     	;# 
  1729  0593                     	;# 
  1730  059C                     	;# 
  1731  059C                     	;# 
  1732  059D                     	;# 
  1733  059D                     	;# 
  1734  059E                     	;# 
  1735  059F                     	;# 
  1736  060C                     	;# 
  1737  060D                     	;# 
  1738  060E                     	;# 
  1739  060F                     	;# 
  1740  0610                     	;# 
  1741  0611                     	;# 
  1742  0612                     	;# 
  1743  0613                     	;# 
  1744  0614                     	;# 
  1745  070C                     	;# 
  1746  070D                     	;# 
  1747  070E                     	;# 
  1748  070F                     	;# 
  1749  0710                     	;# 
  1750  0711                     	;# 
  1751  0712                     	;# 
  1752  0713                     	;# 
  1753  0716                     	;# 
  1754  0717                     	;# 
  1755  0718                     	;# 
  1756  0719                     	;# 
  1757  071A                     	;# 
  1758  071B                     	;# 
  1759  071C                     	;# 
  1760  071D                     	;# 
  1761  0796                     	;# 
  1762  0797                     	;# 
  1763  0798                     	;# 
  1764  0799                     	;# 
  1765  079A                     	;# 
  1766  079B                     	;# 
  1767  080C                     	;# 
  1768  080D                     	;# 
  1769  080E                     	;# 
  1770  080F                     	;# 
  1771  0810                     	;# 
  1772  0811                     	;# 
  1773  0812                     	;# 
  1774  0813                     	;# 
  1775  0814                     	;# 
  1776  081A                     	;# 
  1777  081A                     	;# 
  1778  081B                     	;# 
  1779  081C                     	;# 
  1780  081C                     	;# 
  1781  081D                     	;# 
  1782  081E                     	;# 
  1783  081F                     	;# 
  1784  088C                     	;# 
  1785  088D                     	;# 
  1786  088E                     	;# 
  1787  088F                     	;# 
  1788  0890                     	;# 
  1789  0891                     	;# 
  1790  0892                     	;# 
  1791  0893                     	;# 
  1792  0895                     	;# 
  1793  0896                     	;# 
  1794  090C                     	;# 
  1795  090E                     	;# 
  1796  090F                     	;# 
  1797  091F                     	;# 
  1798  098F                     	;# 
  1799  098F                     	;# 
  1800  0990                     	;# 
  1801  0991                     	;# 
  1802  0992                     	;# 
  1803  0993                     	;# 
  1804  0994                     	;# 
  1805  0995                     	;# 
  1806  0996                     	;# 
  1807  0997                     	;# 
  1808  0A19                     	;# 
  1809  0A19                     	;# 
  1810  0A1A                     	;# 
  1811  0A1A                     	;# 
  1812  0A1B                     	;# 
  1813  0A1B                     	;# 
  1814  0A1B                     	;# 
  1815  0A1C                     	;# 
  1816  0A1C                     	;# 
  1817  0A1D                     	;# 
  1818  0A1D                     	;# 
  1819  0A1E                     	;# 
  1820  0A1E                     	;# 
  1821  0A1F                     	;# 
  1822  0A1F                     	;# 
  1823  0A1F                     	;# 
  1824  1E0F                     	;# 
  1825  1E10                     	;# 
  1826  1E11                     	;# 
  1827  1E12                     	;# 
  1828  1E13                     	;# 
  1829  1E14                     	;# 
  1830  1E15                     	;# 
  1831  1E16                     	;# 
  1832  1E17                     	;# 
  1833  1E18                     	;# 
  1834  1E19                     	;# 
  1835  1E1A                     	;# 
  1836  1E1B                     	;# 
  1837  1E1C                     	;# 
  1838  1E1D                     	;# 
  1839  1E1E                     	;# 
  1840  1E1F                     	;# 
  1841  1E20                     	;# 
  1842  1E21                     	;# 
  1843  1E22                     	;# 
  1844  1E23                     	;# 
  1845  1E24                     	;# 
  1846  1E25                     	;# 
  1847  1E26                     	;# 
  1848  1E27                     	;# 
  1849  1E28                     	;# 
  1850  1E29                     	;# 
  1851  1E2A                     	;# 
  1852  1E2B                     	;# 
  1853  1E2C                     	;# 
  1854  1E2D                     	;# 
  1855  1E2E                     	;# 
  1856  1E2F                     	;# 
  1857  1E30                     	;# 
  1858  1E31                     	;# 
  1859  1E32                     	;# 
  1860  1E33                     	;# 
  1861  1E34                     	;# 
  1862  1E35                     	;# 
  1863  1E36                     	;# 
  1864  1E37                     	;# 
  1865  1E8F                     	;# 
  1866  1E90                     	;# 
  1867  1E91                     	;# 
  1868  1E92                     	;# 
  1869  1E93                     	;# 
  1870  1E9C                     	;# 
  1871  1EA1                     	;# 
  1872  1EA2                     	;# 
  1873  1EB1                     	;# 
  1874  1EBB                     	;# 
  1875  1EBC                     	;# 
  1876  1EBD                     	;# 
  1877  1EBE                     	;# 
  1878  1EC3                     	;# 
  1879  1EC5                     	;# 
  1880  1EC6                     	;# 
  1881  1EC7                     	;# 
  1882  1ECB                     	;# 
  1883  1ECC                     	;# 
  1884  1ECD                     	;# 
  1885  1ECE                     	;# 
  1886  1F10                     	;# 
  1887  1F11                     	;# 
  1888  1F12                     	;# 
  1889  1F13                     	;# 
  1890  1F14                     	;# 
  1891  1F15                     	;# 
  1892  1F20                     	;# 
  1893  1F21                     	;# 
  1894  1F22                     	;# 
  1895  1F23                     	;# 
  1896  1F24                     	;# 
  1897  1F25                     	;# 
  1898  1F38                     	;# 
  1899  1F39                     	;# 
  1900  1F3A                     	;# 
  1901  1F3B                     	;# 
  1902  1F3C                     	;# 
  1903  1F3D                     	;# 
  1904  1F3E                     	;# 
  1905  1F3F                     	;# 
  1906  1F4E                     	;# 
  1907  1F4F                     	;# 
  1908  1F50                     	;# 
  1909  1F51                     	;# 
  1910  1F52                     	;# 
  1911  1F53                     	;# 
  1912  1F54                     	;# 
  1913  1F55                     	;# 
  1914  1FE4                     	;# 
  1915  1FE5                     	;# 
  1916  1FE6                     	;# 
  1917  1FE7                     	;# 
  1918  1FE8                     	;# 
  1919  1FE8                     	;# 
  1920  1FE9                     	;# 
  1921  1FEA                     	;# 
  1922  1FEA                     	;# 
  1923  1FEB                     	;# 
  1924  1FED                     	;# 
  1925  1FEE                     	;# 
  1926  1FEF                     	;# 
  1927  0000                     	;# 
  1928  0001                     	;# 
  1929  0002                     	;# 
  1930  0003                     	;# 
  1931  0004                     	;# 
  1932  0005                     	;# 
  1933  0006                     	;# 
  1934  0007                     	;# 
  1935  0008                     	;# 
  1936  0009                     	;# 
  1937  000A                     	;# 
  1938  000B                     	;# 
  1939  000C                     	;# 
  1940  000E                     	;# 
  1941  0012                     	;# 
  1942  0014                     	;# 
  1943  0018                     	;# 
  1944  001A                     	;# 
  1945  009B                     	;# 
  1946  009B                     	;# 
  1947  009C                     	;# 
  1948  009D                     	;# 
  1949  009E                     	;# 
  1950  009F                     	;# 
  1951  0119                     	;# 
  1952  0119                     	;# 
  1953  0119                     	;# 
  1954  011A                     	;# 
  1955  011A                     	;# 
  1956  011A                     	;# 
  1957  011B                     	;# 
  1958  011B                     	;# 
  1959  011B                     	;# 
  1960  011B                     	;# 
  1961  011B                     	;# 
  1962  011C                     	;# 
  1963  011C                     	;# 
  1964  011C                     	;# 
  1965  011D                     	;# 
  1966  011D                     	;# 
  1967  011D                     	;# 
  1968  011E                     	;# 
  1969  011E                     	;# 
  1970  011E                     	;# 
  1971  011F                     	;# 
  1972  011F                     	;# 
  1973  011F                     	;# 
  1974  011F                     	;# 
  1975  011F                     	;# 
  1976  018C                     	;# 
  1977  018D                     	;# 
  1978  018E                     	;# 
  1979  018F                     	;# 
  1980  0190                     	;# 
  1981  0191                     	;# 
  1982  0192                     	;# 
  1983  020C                     	;# 
  1984  020C                     	;# 
  1985  020D                     	;# 
  1986  020E                     	;# 
  1987  020F                     	;# 
  1988  020F                     	;# 
  1989  0210                     	;# 
  1990  0210                     	;# 
  1991  0211                     	;# 
  1992  0211                     	;# 
  1993  028C                     	;# 
  1994  028C                     	;# 
  1995  028D                     	;# 
  1996  028D                     	;# 
  1997  028E                     	;# 
  1998  028F                     	;# 
  1999  0290                     	;# 
  2000  0291                     	;# 
  2001  030C                     	;# 
  2002  030C                     	;# 
  2003  030D                     	;# 
  2004  030E                     	;# 
  2005  030F                     	;# 
  2006  0310                     	;# 
  2007  0310                     	;# 
  2008  0311                     	;# 
  2009  0312                     	;# 
  2010  0313                     	;# 
  2011  0314                     	;# 
  2012  0314                     	;# 
  2013  0315                     	;# 
  2014  0316                     	;# 
  2015  0318                     	;# 
  2016  0318                     	;# 
  2017  0319                     	;# 
  2018  031A                     	;# 
  2019  031C                     	;# 
  2020  031C                     	;# 
  2021  031D                     	;# 
  2022  031E                     	;# 
  2023  038C                     	;# 
  2024  038C                     	;# 
  2025  038D                     	;# 
  2026  038E                     	;# 
  2027  058C                     	;# 
  2028  058C                     	;# 
  2029  058D                     	;# 
  2030  058E                     	;# 
  2031  058F                     	;# 
  2032  058F                     	;# 
  2033  0590                     	;# 
  2034  0591                     	;# 
  2035  0592                     	;# 
  2036  0593                     	;# 
  2037  059C                     	;# 
  2038  059C                     	;# 
  2039  059D                     	;# 
  2040  059D                     	;# 
  2041  059E                     	;# 
  2042  059F                     	;# 
  2043  060C                     	;# 
  2044  060D                     	;# 
  2045  060E                     	;# 
  2046  060F                     	;# 
  2047  0610                     	;# 
  2048  0611                     	;# 
  2049  0612                     	;# 
  2050  0613                     	;# 
  2051  0614                     	;# 
  2052  070C                     	;# 
  2053  070D                     	;# 
  2054  070E                     	;# 
  2055  070F                     	;# 
  2056  0710                     	;# 
  2057  0711                     	;# 
  2058  0712                     	;# 
  2059  0713                     	;# 
  2060  0716                     	;# 
  2061  0717                     	;# 
  2062  0718                     	;# 
  2063  0719                     	;# 
  2064  071A                     	;# 
  2065  071B                     	;# 
  2066  071C                     	;# 
  2067  071D                     	;# 
  2068  0796                     	;# 
  2069  0797                     	;# 
  2070  0798                     	;# 
  2071  0799                     	;# 
  2072  079A                     	;# 
  2073  079B                     	;# 
  2074  080C                     	;# 
  2075  080D                     	;# 
  2076  080E                     	;# 
  2077  080F                     	;# 
  2078  0810                     	;# 
  2079  0811                     	;# 
  2080  0812                     	;# 
  2081  0813                     	;# 
  2082  0814                     	;# 
  2083  081A                     	;# 
  2084  081A                     	;# 
  2085  081B                     	;# 
  2086  081C                     	;# 
  2087  081C                     	;# 
  2088  081D                     	;# 
  2089  081E                     	;# 
  2090  081F                     	;# 
  2091  088C                     	;# 
  2092  088D                     	;# 
  2093  088E                     	;# 
  2094  088F                     	;# 
  2095  0890                     	;# 
  2096  0891                     	;# 
  2097  0892                     	;# 
  2098  0893                     	;# 
  2099  0895                     	;# 
  2100  0896                     	;# 
  2101  090C                     	;# 
  2102  090E                     	;# 
  2103  090F                     	;# 
  2104  091F                     	;# 
  2105  098F                     	;# 
  2106  098F                     	;# 
  2107  0990                     	;# 
  2108  0991                     	;# 
  2109  0992                     	;# 
  2110  0993                     	;# 
  2111  0994                     	;# 
  2112  0995                     	;# 
  2113  0996                     	;# 
  2114  0997                     	;# 
  2115  0A19                     	;# 
  2116  0A19                     	;# 
  2117  0A1A                     	;# 
  2118  0A1A                     	;# 
  2119  0A1B                     	;# 
  2120  0A1B                     	;# 
  2121  0A1B                     	;# 
  2122  0A1C                     	;# 
  2123  0A1C                     	;# 
  2124  0A1D                     	;# 
  2125  0A1D                     	;# 
  2126  0A1E                     	;# 
  2127  0A1E                     	;# 
  2128  0A1F                     	;# 
  2129  0A1F                     	;# 
  2130  0A1F                     	;# 
  2131  1E0F                     	;# 
  2132  1E10                     	;# 
  2133  1E11                     	;# 
  2134  1E12                     	;# 
  2135  1E13                     	;# 
  2136  1E14                     	;# 
  2137  1E15                     	;# 
  2138  1E16                     	;# 
  2139  1E17                     	;# 
  2140  1E18                     	;# 
  2141  1E19                     	;# 
  2142  1E1A                     	;# 
  2143  1E1B                     	;# 
  2144  1E1C                     	;# 
  2145  1E1D                     	;# 
  2146  1E1E                     	;# 
  2147  1E1F                     	;# 
  2148  1E20                     	;# 
  2149  1E21                     	;# 
  2150  1E22                     	;# 
  2151  1E23                     	;# 
  2152  1E24                     	;# 
  2153  1E25                     	;# 
  2154  1E26                     	;# 
  2155  1E27                     	;# 
  2156  1E28                     	;# 
  2157  1E29                     	;# 
  2158  1E2A                     	;# 
  2159  1E2B                     	;# 
  2160  1E2C                     	;# 
  2161  1E2D                     	;# 
  2162  1E2E                     	;# 
  2163  1E2F                     	;# 
  2164  1E30                     	;# 
  2165  1E31                     	;# 
  2166  1E32                     	;# 
  2167  1E33                     	;# 
  2168  1E34                     	;# 
  2169  1E35                     	;# 
  2170  1E36                     	;# 
  2171  1E37                     	;# 
  2172  1E8F                     	;# 
  2173  1E90                     	;# 
  2174  1E91                     	;# 
  2175  1E92                     	;# 
  2176  1E93                     	;# 
  2177  1E9C                     	;# 
  2178  1EA1                     	;# 
  2179  1EA2                     	;# 
  2180  1EB1                     	;# 
  2181  1EBB                     	;# 
  2182  1EBC                     	;# 
  2183  1EBD                     	;# 
  2184  1EBE                     	;# 
  2185  1EC3                     	;# 
  2186  1EC5                     	;# 
  2187  1EC6                     	;# 
  2188  1EC7                     	;# 
  2189  1ECB                     	;# 
  2190  1ECC                     	;# 
  2191  1ECD                     	;# 
  2192  1ECE                     	;# 
  2193  1F10                     	;# 
  2194  1F11                     	;# 
  2195  1F12                     	;# 
  2196  1F13                     	;# 
  2197  1F14                     	;# 
  2198  1F15                     	;# 
  2199  1F20                     	;# 
  2200  1F21                     	;# 
  2201  1F22                     	;# 
  2202  1F23                     	;# 
  2203  1F24                     	;# 
  2204  1F25                     	;# 
  2205  1F38                     	;# 
  2206  1F39                     	;# 
  2207  1F3A                     	;# 
  2208  1F3B                     	;# 
  2209  1F3C                     	;# 
  2210  1F3D                     	;# 
  2211  1F3E                     	;# 
  2212  1F3F                     	;# 
  2213  1F4E                     	;# 
  2214  1F4F                     	;# 
  2215  1F50                     	;# 
  2216  1F51                     	;# 
  2217  1F52                     	;# 
  2218  1F53                     	;# 
  2219  1F54                     	;# 
  2220  1F55                     	;# 
  2221  1FE4                     	;# 
  2222  1FE5                     	;# 
  2223  1FE6                     	;# 
  2224  1FE7                     	;# 
  2225  1FE8                     	;# 
  2226  1FE8                     	;# 
  2227  1FE9                     	;# 
  2228  1FEA                     	;# 
  2229  1FEA                     	;# 
  2230  1FEB                     	;# 
  2231  1FED                     	;# 
  2232  1FEE                     	;# 
  2233  1FEF                     	;# 
  2234  0000                     	;# 
  2235  0001                     	;# 
  2236  0002                     	;# 
  2237  0003                     	;# 
  2238  0004                     	;# 
  2239  0005                     	;# 
  2240  0006                     	;# 
  2241  0007                     	;# 
  2242  0008                     	;# 
  2243  0009                     	;# 
  2244  000A                     	;# 
  2245  000B                     	;# 
  2246  000C                     	;# 
  2247  000E                     	;# 
  2248  0012                     	;# 
  2249  0014                     	;# 
  2250  0018                     	;# 
  2251  001A                     	;# 
  2252  009B                     	;# 
  2253  009B                     	;# 
  2254  009C                     	;# 
  2255  009D                     	;# 
  2256  009E                     	;# 
  2257  009F                     	;# 
  2258  0119                     	;# 
  2259  0119                     	;# 
  2260  0119                     	;# 
  2261  011A                     	;# 
  2262  011A                     	;# 
  2263  011A                     	;# 
  2264  011B                     	;# 
  2265  011B                     	;# 
  2266  011B                     	;# 
  2267  011B                     	;# 
  2268  011B                     	;# 
  2269  011C                     	;# 
  2270  011C                     	;# 
  2271  011C                     	;# 
  2272  011D                     	;# 
  2273  011D                     	;# 
  2274  011D                     	;# 
  2275  011E                     	;# 
  2276  011E                     	;# 
  2277  011E                     	;# 
  2278  011F                     	;# 
  2279  011F                     	;# 
  2280  011F                     	;# 
  2281  011F                     	;# 
  2282  011F                     	;# 
  2283  018C                     	;# 
  2284  018D                     	;# 
  2285  018E                     	;# 
  2286  018F                     	;# 
  2287  0190                     	;# 
  2288  0191                     	;# 
  2289  0192                     	;# 
  2290  020C                     	;# 
  2291  020C                     	;# 
  2292  020D                     	;# 
  2293  020E                     	;# 
  2294  020F                     	;# 
  2295  020F                     	;# 
  2296  0210                     	;# 
  2297  0210                     	;# 
  2298  0211                     	;# 
  2299  0211                     	;# 
  2300  028C                     	;# 
  2301  028C                     	;# 
  2302  028D                     	;# 
  2303  028D                     	;# 
  2304  028E                     	;# 
  2305  028F                     	;# 
  2306  0290                     	;# 
  2307  0291                     	;# 
  2308  030C                     	;# 
  2309  030C                     	;# 
  2310  030D                     	;# 
  2311  030E                     	;# 
  2312  030F                     	;# 
  2313  0310                     	;# 
  2314  0310                     	;# 
  2315  0311                     	;# 
  2316  0312                     	;# 
  2317  0313                     	;# 
  2318  0314                     	;# 
  2319  0314                     	;# 
  2320  0315                     	;# 
  2321  0316                     	;# 
  2322  0318                     	;# 
  2323  0318                     	;# 
  2324  0319                     	;# 
  2325  031A                     	;# 
  2326  031C                     	;# 
  2327  031C                     	;# 
  2328  031D                     	;# 
  2329  031E                     	;# 
  2330  038C                     	;# 
  2331  038C                     	;# 
  2332  038D                     	;# 
  2333  038E                     	;# 
  2334  058C                     	;# 
  2335  058C                     	;# 
  2336  058D                     	;# 
  2337  058E                     	;# 
  2338  058F                     	;# 
  2339  058F                     	;# 
  2340  0590                     	;# 
  2341  0591                     	;# 
  2342  0592                     	;# 
  2343  0593                     	;# 
  2344  059C                     	;# 
  2345  059C                     	;# 
  2346  059D                     	;# 
  2347  059D                     	;# 
  2348  059E                     	;# 
  2349  059F                     	;# 
  2350  060C                     	;# 
  2351  060D                     	;# 
  2352  060E                     	;# 
  2353  060F                     	;# 
  2354  0610                     	;# 
  2355  0611                     	;# 
  2356  0612                     	;# 
  2357  0613                     	;# 
  2358  0614                     	;# 
  2359  070C                     	;# 
  2360  070D                     	;# 
  2361  070E                     	;# 
  2362  070F                     	;# 
  2363  0710                     	;# 
  2364  0711                     	;# 
  2365  0712                     	;# 
  2366  0713                     	;# 
  2367  0716                     	;# 
  2368  0717                     	;# 
  2369  0718                     	;# 
  2370  0719                     	;# 
  2371  071A                     	;# 
  2372  071B                     	;# 
  2373  071C                     	;# 
  2374  071D                     	;# 
  2375  0796                     	;# 
  2376  0797                     	;# 
  2377  0798                     	;# 
  2378  0799                     	;# 
  2379  079A                     	;# 
  2380  079B                     	;# 
  2381  080C                     	;# 
  2382  080D                     	;# 
  2383  080E                     	;# 
  2384  080F                     	;# 
  2385  0810                     	;# 
  2386  0811                     	;# 
  2387  0812                     	;# 
  2388  0813                     	;# 
  2389  0814                     	;# 
  2390  081A                     	;# 
  2391  081A                     	;# 
  2392  081B                     	;# 
  2393  081C                     	;# 
  2394  081C                     	;# 
  2395  081D                     	;# 
  2396  081E                     	;# 
  2397  081F                     	;# 
  2398  088C                     	;# 
  2399  088D                     	;# 
  2400  088E                     	;# 
  2401  088F                     	;# 
  2402  0890                     	;# 
  2403  0891                     	;# 
  2404  0892                     	;# 
  2405  0893                     	;# 
  2406  0895                     	;# 
  2407  0896                     	;# 
  2408  090C                     	;# 
  2409  090E                     	;# 
  2410  090F                     	;# 
  2411  091F                     	;# 
  2412  098F                     	;# 
  2413  098F                     	;# 
  2414  0990                     	;# 
  2415  0991                     	;# 
  2416  0992                     	;# 
  2417  0993                     	;# 
  2418  0994                     	;# 
  2419  0995                     	;# 
  2420  0996                     	;# 
  2421  0997                     	;# 
  2422  0A19                     	;# 
  2423  0A19                     	;# 
  2424  0A1A                     	;# 
  2425  0A1A                     	;# 
  2426  0A1B                     	;# 
  2427  0A1B                     	;# 
  2428  0A1B                     	;# 
  2429  0A1C                     	;# 
  2430  0A1C                     	;# 
  2431  0A1D                     	;# 
  2432  0A1D                     	;# 
  2433  0A1E                     	;# 
  2434  0A1E                     	;# 
  2435  0A1F                     	;# 
  2436  0A1F                     	;# 
  2437  0A1F                     	;# 
  2438  1E0F                     	;# 
  2439  1E10                     	;# 
  2440  1E11                     	;# 
  2441  1E12                     	;# 
  2442  1E13                     	;# 
  2443  1E14                     	;# 
  2444  1E15                     	;# 
  2445  1E16                     	;# 
  2446  1E17                     	;# 
  2447  1E18                     	;# 
  2448  1E19                     	;# 
  2449  1E1A                     	;# 
  2450  1E1B                     	;# 
  2451  1E1C                     	;# 
  2452  1E1D                     	;# 
  2453  1E1E                     	;# 
  2454  1E1F                     	;# 
  2455  1E20                     	;# 
  2456  1E21                     	;# 
  2457  1E22                     	;# 
  2458  1E23                     	;# 
  2459  1E24                     	;# 
  2460  1E25                     	;# 
  2461  1E26                     	;# 
  2462  1E27                     	;# 
  2463  1E28                     	;# 
  2464  1E29                     	;# 
  2465  1E2A                     	;# 
  2466  1E2B                     	;# 
  2467  1E2C                     	;# 
  2468  1E2D                     	;# 
  2469  1E2E                     	;# 
  2470  1E2F                     	;# 
  2471  1E30                     	;# 
  2472  1E31                     	;# 
  2473  1E32                     	;# 
  2474  1E33                     	;# 
  2475  1E34                     	;# 
  2476  1E35                     	;# 
  2477  1E36                     	;# 
  2478  1E37                     	;# 
  2479  1E8F                     	;# 
  2480  1E90                     	;# 
  2481  1E91                     	;# 
  2482  1E92                     	;# 
  2483  1E93                     	;# 
  2484  1E9C                     	;# 
  2485  1EA1                     	;# 
  2486  1EA2                     	;# 
  2487  1EB1                     	;# 
  2488  1EBB                     	;# 
  2489  1EBC                     	;# 
  2490  1EBD                     	;# 
  2491  1EBE                     	;# 
  2492  1EC3                     	;# 
  2493  1EC5                     	;# 
  2494  1EC6                     	;# 
  2495  1EC7                     	;# 
  2496  1ECB                     	;# 
  2497  1ECC                     	;# 
  2498  1ECD                     	;# 
  2499  1ECE                     	;# 
  2500  1F10                     	;# 
  2501  1F11                     	;# 
  2502  1F12                     	;# 
  2503  1F13                     	;# 
  2504  1F14                     	;# 
  2505  1F15                     	;# 
  2506  1F20                     	;# 
  2507  1F21                     	;# 
  2508  1F22                     	;# 
  2509  1F23                     	;# 
  2510  1F24                     	;# 
  2511  1F25                     	;# 
  2512  1F38                     	;# 
  2513  1F39                     	;# 
  2514  1F3A                     	;# 
  2515  1F3B                     	;# 
  2516  1F3C                     	;# 
  2517  1F3D                     	;# 
  2518  1F3E                     	;# 
  2519  1F3F                     	;# 
  2520  1F4E                     	;# 
  2521  1F4F                     	;# 
  2522  1F50                     	;# 
  2523  1F51                     	;# 
  2524  1F52                     	;# 
  2525  1F53                     	;# 
  2526  1F54                     	;# 
  2527  1F55                     	;# 
  2528  1FE4                     	;# 
  2529  1FE5                     	;# 
  2530  1FE6                     	;# 
  2531  1FE7                     	;# 
  2532  1FE8                     	;# 
  2533  1FE8                     	;# 
  2534  1FE9                     	;# 
  2535  1FEA                     	;# 
  2536  1FEA                     	;# 
  2537  1FEB                     	;# 
  2538  1FED                     	;# 
  2539  1FEE                     	;# 
  2540  1FEF                     	;# 
  2541  0000                     	;# 
  2542  0001                     	;# 
  2543  0002                     	;# 
  2544  0003                     	;# 
  2545  0004                     	;# 
  2546  0005                     	;# 
  2547  0006                     	;# 
  2548  0007                     	;# 
  2549  0008                     	;# 
  2550  0009                     	;# 
  2551  000A                     	;# 
  2552  000B                     	;# 
  2553  000C                     	;# 
  2554  000E                     	;# 
  2555  0012                     	;# 
  2556  0014                     	;# 
  2557  0018                     	;# 
  2558  001A                     	;# 
  2559  009B                     	;# 
  2560  009B                     	;# 
  2561  009C                     	;# 
  2562  009D                     	;# 
  2563  009E                     	;# 
  2564  009F                     	;# 
  2565  0119                     	;# 
  2566  0119                     	;# 
  2567  0119                     	;# 
  2568  011A                     	;# 
  2569  011A                     	;# 
  2570  011A                     	;# 
  2571  011B                     	;# 
  2572  011B                     	;# 
  2573  011B                     	;# 
  2574  011B                     	;# 
  2575  011B                     	;# 
  2576  011C                     	;# 
  2577  011C                     	;# 
  2578  011C                     	;# 
  2579  011D                     	;# 
  2580  011D                     	;# 
  2581  011D                     	;# 
  2582  011E                     	;# 
  2583  011E                     	;# 
  2584  011E                     	;# 
  2585  011F                     	;# 
  2586  011F                     	;# 
  2587  011F                     	;# 
  2588  011F                     	;# 
  2589  011F                     	;# 
  2590  018C                     	;# 
  2591  018D                     	;# 
  2592  018E                     	;# 
  2593  018F                     	;# 
  2594  0190                     	;# 
  2595  0191                     	;# 
  2596  0192                     	;# 
  2597  020C                     	;# 
  2598  020C                     	;# 
  2599  020D                     	;# 
  2600  020E                     	;# 
  2601  020F                     	;# 
  2602  020F                     	;# 
  2603  0210                     	;# 
  2604  0210                     	;# 
  2605  0211                     	;# 
  2606  0211                     	;# 
  2607  028C                     	;# 
  2608  028C                     	;# 
  2609  028D                     	;# 
  2610  028D                     	;# 
  2611  028E                     	;# 
  2612  028F                     	;# 
  2613  0290                     	;# 
  2614  0291                     	;# 
  2615  030C                     	;# 
  2616  030C                     	;# 
  2617  030D                     	;# 
  2618  030E                     	;# 
  2619  030F                     	;# 
  2620  0310                     	;# 
  2621  0310                     	;# 
  2622  0311                     	;# 
  2623  0312                     	;# 
  2624  0313                     	;# 
  2625  0314                     	;# 
  2626  0314                     	;# 
  2627  0315                     	;# 
  2628  0316                     	;# 
  2629  0318                     	;# 
  2630  0318                     	;# 
  2631  0319                     	;# 
  2632  031A                     	;# 
  2633  031C                     	;# 
  2634  031C                     	;# 
  2635  031D                     	;# 
  2636  031E                     	;# 
  2637  038C                     	;# 
  2638  038C                     	;# 
  2639  038D                     	;# 
  2640  038E                     	;# 
  2641  058C                     	;# 
  2642  058C                     	;# 
  2643  058D                     	;# 
  2644  058E                     	;# 
  2645  058F                     	;# 
  2646  058F                     	;# 
  2647  0590                     	;# 
  2648  0591                     	;# 
  2649  0592                     	;# 
  2650  0593                     	;# 
  2651  059C                     	;# 
  2652  059C                     	;# 
  2653  059D                     	;# 
  2654  059D                     	;# 
  2655  059E                     	;# 
  2656  059F                     	;# 
  2657  060C                     	;# 
  2658  060D                     	;# 
  2659  060E                     	;# 
  2660  060F                     	;# 
  2661  0610                     	;# 
  2662  0611                     	;# 
  2663  0612                     	;# 
  2664  0613                     	;# 
  2665  0614                     	;# 
  2666  070C                     	;# 
  2667  070D                     	;# 
  2668  070E                     	;# 
  2669  070F                     	;# 
  2670  0710                     	;# 
  2671  0711                     	;# 
  2672  0712                     	;# 
  2673  0713                     	;# 
  2674  0716                     	;# 
  2675  0717                     	;# 
  2676  0718                     	;# 
  2677  0719                     	;# 
  2678  071A                     	;# 
  2679  071B                     	;# 
  2680  071C                     	;# 
  2681  071D                     	;# 
  2682  0796                     	;# 
  2683  0797                     	;# 
  2684  0798                     	;# 
  2685  0799                     	;# 
  2686  079A                     	;# 
  2687  079B                     	;# 
  2688  080C                     	;# 
  2689  080D                     	;# 
  2690  080E                     	;# 
  2691  080F                     	;# 
  2692  0810                     	;# 
  2693  0811                     	;# 
  2694  0812                     	;# 
  2695  0813                     	;# 
  2696  0814                     	;# 
  2697  081A                     	;# 
  2698  081A                     	;# 
  2699  081B                     	;# 
  2700  081C                     	;# 
  2701  081C                     	;# 
  2702  081D                     	;# 
  2703  081E                     	;# 
  2704  081F                     	;# 
  2705  088C                     	;# 
  2706  088D                     	;# 
  2707  088E                     	;# 
  2708  088F                     	;# 
  2709  0890                     	;# 
  2710  0891                     	;# 
  2711  0892                     	;# 
  2712  0893                     	;# 
  2713  0895                     	;# 
  2714  0896                     	;# 
  2715  090C                     	;# 
  2716  090E                     	;# 
  2717  090F                     	;# 
  2718  091F                     	;# 
  2719  098F                     	;# 
  2720  098F                     	;# 
  2721  0990                     	;# 
  2722  0991                     	;# 
  2723  0992                     	;# 
  2724  0993                     	;# 
  2725  0994                     	;# 
  2726  0995                     	;# 
  2727  0996                     	;# 
  2728  0997                     	;# 
  2729  0A19                     	;# 
  2730  0A19                     	;# 
  2731  0A1A                     	;# 
  2732  0A1A                     	;# 
  2733  0A1B                     	;# 
  2734  0A1B                     	;# 
  2735  0A1B                     	;# 
  2736  0A1C                     	;# 
  2737  0A1C                     	;# 
  2738  0A1D                     	;# 
  2739  0A1D                     	;# 
  2740  0A1E                     	;# 
  2741  0A1E                     	;# 
  2742  0A1F                     	;# 
  2743  0A1F                     	;# 
  2744  0A1F                     	;# 
  2745  1E0F                     	;# 
  2746  1E10                     	;# 
  2747  1E11                     	;# 
  2748  1E12                     	;# 
  2749  1E13                     	;# 
  2750  1E14                     	;# 
  2751  1E15                     	;# 
  2752  1E16                     	;# 
  2753  1E17                     	;# 
  2754  1E18                     	;# 
  2755  1E19                     	;# 
  2756  1E1A                     	;# 
  2757  1E1B                     	;# 
  2758  1E1C                     	;# 
  2759  1E1D                     	;# 
  2760  1E1E                     	;# 
  2761  1E1F                     	;# 
  2762  1E20                     	;# 
  2763  1E21                     	;# 
  2764  1E22                     	;# 
  2765  1E23                     	;# 
  2766  1E24                     	;# 
  2767  1E25                     	;# 
  2768  1E26                     	;# 
  2769  1E27                     	;# 
  2770  1E28                     	;# 
  2771  1E29                     	;# 
  2772  1E2A                     	;# 
  2773  1E2B                     	;# 
  2774  1E2C                     	;# 
  2775  1E2D                     	;# 
  2776  1E2E                     	;# 
  2777  1E2F                     	;# 
  2778  1E30                     	;# 
  2779  1E31                     	;# 
  2780  1E32                     	;# 
  2781  1E33                     	;# 
  2782  1E34                     	;# 
  2783  1E35                     	;# 
  2784  1E36                     	;# 
  2785  1E37                     	;# 
  2786  1E8F                     	;# 
  2787  1E90                     	;# 
  2788  1E91                     	;# 
  2789  1E92                     	;# 
  2790  1E93                     	;# 
  2791  1E9C                     	;# 
  2792  1EA1                     	;# 
  2793  1EA2                     	;# 
  2794  1EB1                     	;# 
  2795  1EBB                     	;# 
  2796  1EBC                     	;# 
  2797  1EBD                     	;# 
  2798  1EBE                     	;# 
  2799  1EC3                     	;# 
  2800  1EC5                     	;# 
  2801  1EC6                     	;# 
  2802  1EC7                     	;# 
  2803  1ECB                     	;# 
  2804  1ECC                     	;# 
  2805  1ECD                     	;# 
  2806  1ECE                     	;# 
  2807  1F10                     	;# 
  2808  1F11                     	;# 
  2809  1F12                     	;# 
  2810  1F13                     	;# 
  2811  1F14                     	;# 
  2812  1F15                     	;# 
  2813  1F20                     	;# 
  2814  1F21                     	;# 
  2815  1F22                     	;# 
  2816  1F23                     	;# 
  2817  1F24                     	;# 
  2818  1F25                     	;# 
  2819  1F38                     	;# 
  2820  1F39                     	;# 
  2821  1F3A                     	;# 
  2822  1F3B                     	;# 
  2823  1F3C                     	;# 
  2824  1F3D                     	;# 
  2825  1F3E                     	;# 
  2826  1F3F                     	;# 
  2827  1F4E                     	;# 
  2828  1F4F                     	;# 
  2829  1F50                     	;# 
  2830  1F51                     	;# 
  2831  1F52                     	;# 
  2832  1F53                     	;# 
  2833  1F54                     	;# 
  2834  1F55                     	;# 
  2835  1FE4                     	;# 
  2836  1FE5                     	;# 
  2837  1FE6                     	;# 
  2838  1FE7                     	;# 
  2839  1FE8                     	;# 
  2840  1FE8                     	;# 
  2841  1FE9                     	;# 
  2842  1FEA                     	;# 
  2843  1FEA                     	;# 
  2844  1FEB                     	;# 
  2845  1FED                     	;# 
  2846  1FEE                     	;# 
  2847  1FEF                     	;# 
  2848  0000                     	;# 
  2849  0001                     	;# 
  2850  0002                     	;# 
  2851  0003                     	;# 
  2852  0004                     	;# 
  2853  0005                     	;# 
  2854  0006                     	;# 
  2855  0007                     	;# 
  2856  0008                     	;# 
  2857  0009                     	;# 
  2858  000A                     	;# 
  2859  000B                     	;# 
  2860  000C                     	;# 
  2861  000E                     	;# 
  2862  0012                     	;# 
  2863  0014                     	;# 
  2864  0018                     	;# 
  2865  001A                     	;# 
  2866  009B                     	;# 
  2867  009B                     	;# 
  2868  009C                     	;# 
  2869  009D                     	;# 
  2870  009E                     	;# 
  2871  009F                     	;# 
  2872  0119                     	;# 
  2873  0119                     	;# 
  2874  0119                     	;# 
  2875  011A                     	;# 
  2876  011A                     	;# 
  2877  011A                     	;# 
  2878  011B                     	;# 
  2879  011B                     	;# 
  2880  011B                     	;# 
  2881  011B                     	;# 
  2882  011B                     	;# 
  2883  011C                     	;# 
  2884  011C                     	;# 
  2885  011C                     	;# 
  2886  011D                     	;# 
  2887  011D                     	;# 
  2888  011D                     	;# 
  2889  011E                     	;# 
  2890  011E                     	;# 
  2891  011E                     	;# 
  2892  011F                     	;# 
  2893  011F                     	;# 
  2894  011F                     	;# 
  2895  011F                     	;# 
  2896  011F                     	;# 
  2897  018C                     	;# 
  2898  018D                     	;# 
  2899  018E                     	;# 
  2900  018F                     	;# 
  2901  0190                     	;# 
  2902  0191                     	;# 
  2903  0192                     	;# 
  2904  020C                     	;# 
  2905  020C                     	;# 
  2906  020D                     	;# 
  2907  020E                     	;# 
  2908  020F                     	;# 
  2909  020F                     	;# 
  2910  0210                     	;# 
  2911  0210                     	;# 
  2912  0211                     	;# 
  2913  0211                     	;# 
  2914  028C                     	;# 
  2915  028C                     	;# 
  2916  028D                     	;# 
  2917  028D                     	;# 
  2918  028E                     	;# 
  2919  028F                     	;# 
  2920  0290                     	;# 
  2921  0291                     	;# 
  2922  030C                     	;# 
  2923  030C                     	;# 
  2924  030D                     	;# 
  2925  030E                     	;# 
  2926  030F                     	;# 
  2927  0310                     	;# 
  2928  0310                     	;# 
  2929  0311                     	;# 
  2930  0312                     	;# 
  2931  0313                     	;# 
  2932  0314                     	;# 
  2933  0314                     	;# 
  2934  0315                     	;# 
  2935  0316                     	;# 
  2936  0318                     	;# 
  2937  0318                     	;# 
  2938  0319                     	;# 
  2939  031A                     	;# 
  2940  031C                     	;# 
  2941  031C                     	;# 
  2942  031D                     	;# 
  2943  031E                     	;# 
  2944  038C                     	;# 
  2945  038C                     	;# 
  2946  038D                     	;# 
  2947  038E                     	;# 
  2948  058C                     	;# 
  2949  058C                     	;# 
  2950  058D                     	;# 
  2951  058E                     	;# 
  2952  058F                     	;# 
  2953  058F                     	;# 
  2954  0590                     	;# 
  2955  0591                     	;# 
  2956  0592                     	;# 
  2957  0593                     	;# 
  2958  059C                     	;# 
  2959  059C                     	;# 
  2960  059D                     	;# 
  2961  059D                     	;# 
  2962  059E                     	;# 
  2963  059F                     	;# 
  2964  060C                     	;# 
  2965  060D                     	;# 
  2966  060E                     	;# 
  2967  060F                     	;# 
  2968  0610                     	;# 
  2969  0611                     	;# 
  2970  0612                     	;# 
  2971  0613                     	;# 
  2972  0614                     	;# 
  2973  070C                     	;# 
  2974  070D                     	;# 
  2975  070E                     	;# 
  2976  070F                     	;# 
  2977  0710                     	;# 
  2978  0711                     	;# 
  2979  0712                     	;# 
  2980  0713                     	;# 
  2981  0716                     	;# 
  2982  0717                     	;# 
  2983  0718                     	;# 
  2984  0719                     	;# 
  2985  071A                     	;# 
  2986  071B                     	;# 
  2987  071C                     	;# 
  2988  071D                     	;# 
  2989  0796                     	;# 
  2990  0797                     	;# 
  2991  0798                     	;# 
  2992  0799                     	;# 
  2993  079A                     	;# 
  2994  079B                     	;# 
  2995  080C                     	;# 
  2996  080D                     	;# 
  2997  080E                     	;# 
  2998  080F                     	;# 
  2999  0810                     	;# 
  3000  0811                     	;# 
  3001  0812                     	;# 
  3002  0813                     	;# 
  3003  0814                     	;# 
  3004  081A                     	;# 
  3005  081A                     	;# 
  3006  081B                     	;# 
  3007  081C                     	;# 
  3008  081C                     	;# 
  3009  081D                     	;# 
  3010  081E                     	;# 
  3011  081F                     	;# 
  3012  088C                     	;# 
  3013  088D                     	;# 
  3014  088E                     	;# 
  3015  088F                     	;# 
  3016  0890                     	;# 
  3017  0891                     	;# 
  3018  0892                     	;# 
  3019  0893                     	;# 
  3020  0895                     	;# 
  3021  0896                     	;# 
  3022  090C                     	;# 
  3023  090E                     	;# 
  3024  090F                     	;# 
  3025  091F                     	;# 
  3026  098F                     	;# 
  3027  098F                     	;# 
  3028  0990                     	;# 
  3029  0991                     	;# 
  3030  0992                     	;# 
  3031  0993                     	;# 
  3032  0994                     	;# 
  3033  0995                     	;# 
  3034  0996                     	;# 
  3035  0997                     	;# 
  3036  0A19                     	;# 
  3037  0A19                     	;# 
  3038  0A1A                     	;# 
  3039  0A1A                     	;# 
  3040  0A1B                     	;# 
  3041  0A1B                     	;# 
  3042  0A1B                     	;# 
  3043  0A1C                     	;# 
  3044  0A1C                     	;# 
  3045  0A1D                     	;# 
  3046  0A1D                     	;# 
  3047  0A1E                     	;# 
  3048  0A1E                     	;# 
  3049  0A1F                     	;# 
  3050  0A1F                     	;# 
  3051  0A1F                     	;# 
  3052  1E0F                     	;# 
  3053  1E10                     	;# 
  3054  1E11                     	;# 
  3055  1E12                     	;# 
  3056  1E13                     	;# 
  3057  1E14                     	;# 
  3058  1E15                     	;# 
  3059  1E16                     	;# 
  3060  1E17                     	;# 
  3061  1E18                     	;# 
  3062  1E19                     	;# 
  3063  1E1A                     	;# 
  3064  1E1B                     	;# 
  3065  1E1C                     	;# 
  3066  1E1D                     	;# 
  3067  1E1E                     	;# 
  3068  1E1F                     	;# 
  3069  1E20                     	;# 
  3070  1E21                     	;# 
  3071  1E22                     	;# 
  3072  1E23                     	;# 
  3073  1E24                     	;# 
  3074  1E25                     	;# 
  3075  1E26                     	;# 
  3076  1E27                     	;# 
  3077  1E28                     	;# 
  3078  1E29                     	;# 
  3079  1E2A                     	;# 
  3080  1E2B                     	;# 
  3081  1E2C                     	;# 
  3082  1E2D                     	;# 
  3083  1E2E                     	;# 
  3084  1E2F                     	;# 
  3085  1E30                     	;# 
  3086  1E31                     	;# 
  3087  1E32                     	;# 
  3088  1E33                     	;# 
  3089  1E34                     	;# 
  3090  1E35                     	;# 
  3091  1E36                     	;# 
  3092  1E37                     	;# 
  3093  1E8F                     	;# 
  3094  1E90                     	;# 
  3095  1E91                     	;# 
  3096  1E92                     	;# 
  3097  1E93                     	;# 
  3098  1E9C                     	;# 
  3099  1EA1                     	;# 
  3100  1EA2                     	;# 
  3101  1EB1                     	;# 
  3102  1EBB                     	;# 
  3103  1EBC                     	;# 
  3104  1EBD                     	;# 
  3105  1EBE                     	;# 
  3106  1EC3                     	;# 
  3107  1EC5                     	;# 
  3108  1EC6                     	;# 
  3109  1EC7                     	;# 
  3110  1ECB                     	;# 
  3111  1ECC                     	;# 
  3112  1ECD                     	;# 
  3113  1ECE                     	;# 
  3114  1F10                     	;# 
  3115  1F11                     	;# 
  3116  1F12                     	;# 
  3117  1F13                     	;# 
  3118  1F14                     	;# 
  3119  1F15                     	;# 
  3120  1F20                     	;# 
  3121  1F21                     	;# 
  3122  1F22                     	;# 
  3123  1F23                     	;# 
  3124  1F24                     	;# 
  3125  1F25                     	;# 
  3126  1F38                     	;# 
  3127  1F39                     	;# 
  3128  1F3A                     	;# 
  3129  1F3B                     	;# 
  3130  1F3C                     	;# 
  3131  1F3D                     	;# 
  3132  1F3E                     	;# 
  3133  1F3F                     	;# 
  3134  1F4E                     	;# 
  3135  1F4F                     	;# 
  3136  1F50                     	;# 
  3137  1F51                     	;# 
  3138  1F52                     	;# 
  3139  1F53                     	;# 
  3140  1F54                     	;# 
  3141  1F55                     	;# 
  3142  1FE4                     	;# 
  3143  1FE5                     	;# 
  3144  1FE6                     	;# 
  3145  1FE7                     	;# 
  3146  1FE8                     	;# 
  3147  1FE8                     	;# 
  3148  1FE9                     	;# 
  3149  1FEA                     	;# 
  3150  1FEA                     	;# 
  3151  1FEB                     	;# 
  3152  1FED                     	;# 
  3153  1FEE                     	;# 
  3154  1FEF                     	;_track_silent_night
  3155                           
  3156                           	psect	idataBIGRAM
  3157  0057                     __pidataBIGRAM:
  3158                           
  3159                           ;initializer for _track_silent_night
  3160  0057  344F               	retlw	79
  3161  0058  344F               	retlw	79
  3162  0059  344F               	retlw	79
  3163  005A  3446               	retlw	70
  3164  005B  344F               	retlw	79
  3165  005C  3401               	retlw	1
  3166  005D  345E               	retlw	94
  3167  005E  345E               	retlw	94
  3168  005F  345E               	retlw	94
  3169  0060  345E               	retlw	94
  3170  0061  345E               	retlw	94
  3171  0062  3401               	retlw	1
  3172  0063  344F               	retlw	79
  3173  0064  344F               	retlw	79
  3174  0065  344F               	retlw	79
  3175  0066  3446               	retlw	70
  3176  0067  344F               	retlw	79
  3177  0068  3401               	retlw	1
  3178  0069  345E               	retlw	94
  3179  006A  345E               	retlw	94
  3180  006B  345E               	retlw	94
  3181  006C  345E               	retlw	94
  3182  006D  345E               	retlw	94
  3183  006E  3401               	retlw	1
  3184  006F  3434               	retlw	52
  3185  0070  3434               	retlw	52
  3186  0071  3434               	retlw	52
  3187  0072  3401               	retlw	1
  3188  0073  3434               	retlw	52
  3189  0074  3401               	retlw	1
  3190  0075  343E               	retlw	62
  3191  0076  343E               	retlw	62
  3192  0077  343E               	retlw	62
  3193  0078  343E               	retlw	62
  3194  0079  343E               	retlw	62
  3195  007A  3401               	retlw	1
  3196  007B  343B               	retlw	59
  3197  007C  343B               	retlw	59
  3198  007D  343B               	retlw	59
  3199  007E  3401               	retlw	1
  3200  007F  343B               	retlw	59
  3201  0080  3401               	retlw	1
  3202  0081  344F               	retlw	79
  3203  0082  344F               	retlw	79
  3204  0083  344F               	retlw	79
  3205  0084  344F               	retlw	79
  3206  0085  344F               	retlw	79
  3207  0086  3401               	retlw	1
  3208  0087  3446               	retlw	70
  3209  0088  3446               	retlw	70
  3210  0089  3446               	retlw	70
  3211  008A  3401               	retlw	1
  3212  008B  3446               	retlw	70
  3213  008C  3401               	retlw	1
  3214  008D  343B               	retlw	59
  3215  008E  343B               	retlw	59
  3216  008F  343B               	retlw	59
  3217  0090  343E               	retlw	62
  3218  0091  3446               	retlw	70
  3219  0092  3401               	retlw	1
  3220  0093  344F               	retlw	79
  3221  0094  344F               	retlw	79
  3222  0095  344F               	retlw	79
  3223  0096  3446               	retlw	70
  3224  0097  344F               	retlw	79
  3225  0098  3401               	retlw	1
  3226  0099  345E               	retlw	94
  3227  009A  345E               	retlw	94
  3228  009B  345E               	retlw	94
  3229  009C  345E               	retlw	94
  3230  009D  345E               	retlw	94
  3231  009E  3401               	retlw	1
  3232  009F  3446               	retlw	70
  3233  00A0  3446               	retlw	70
  3234  00A1  3446               	retlw	70
  3235  00A2  3401               	retlw	1
  3236  00A3  3446               	retlw	70
  3237  00A4  3401               	retlw	1
  3238  00A5  343B               	retlw	59
  3239  00A6  343B               	retlw	59
  3240  00A7  343B               	retlw	59
  3241  00A8  343E               	retlw	62
  3242  00A9  3446               	retlw	70
  3243  00AA  3401               	retlw	1
  3244  00AB  344F               	retlw	79
  3245  00AC  344F               	retlw	79
  3246  00AD  344F               	retlw	79
  3247  00AE  3446               	retlw	70
  3248  00AF  344F               	retlw	79
  3249  00B0  3401               	retlw	1
  3250  00B1  345E               	retlw	94
  3251  00B2  345E               	retlw	94
  3252  00B3  345E               	retlw	94
  3253  00B4  345E               	retlw	94
  3254  00B5  345E               	retlw	94
  3255  00B6  3401               	retlw	1
  3256  00B7  3434               	retlw	52
  3257  00B8  3434               	retlw	52
  3258  00B9  3434               	retlw	52
  3259  00BA  3401               	retlw	1
  3260  00BB  3434               	retlw	52
  3261  00BC  3401               	retlw	1
  3262  00BD  342C               	retlw	44
  3263  00BE  342C               	retlw	44
  3264  00BF  342C               	retlw	44
  3265  00C0  3434               	retlw	52
  3266  00C1  343E               	retlw	62
  3267  00C2  3401               	retlw	1
  3268  00C3  343B               	retlw	59
  3269  00C4  343B               	retlw	59
  3270  00C5  343B               	retlw	59
  3271  00C6  343B               	retlw	59
  3272  00C7  343B               	retlw	59
  3273  00C8  343B               	retlw	59
  3274  00C9  342E               	retlw	46
  3275  00CA  342E               	retlw	46
  3276  00CB  342E               	retlw	46
  3277  00CC  342E               	retlw	46
  3278  00CD  342E               	retlw	46
  3279  00CE  3401               	retlw	1
  3280  00CF  343B               	retlw	59
  3281  00D0  343B               	retlw	59
  3282  00D1  344F               	retlw	79
  3283  00D2  344F               	retlw	79
  3284  00D3  345E               	retlw	94
  3285  00D4  345E               	retlw	94
  3286  00D5  344F               	retlw	79
  3287  00D6  344F               	retlw	79
  3288  00D7  344F               	retlw	79
  3289  00D8  3458               	retlw	88
  3290  00D9  3469               	retlw	105
  3291  00DA  3401               	retlw	1
  3292  00DB  3476               	retlw	118
  3293  00DC  3476               	retlw	118
  3294  00DD  3476               	retlw	118
  3295  00DE  3476               	retlw	118
  3296  00DF  3476               	retlw	118
  3297  00E0  3476               	retlw	118
  3298  00E1  3476               	retlw	118
  3299  00E2  3476               	retlw	118
  3300  00E3  3401               	retlw	1
  3301  00E4  3401               	retlw	1
  3302  00E5  3401               	retlw	1
  3303  00E6  3401               	retlw	1
  3304                           
  3305                           	psect	idataBANK0
  3306  012B                     __pidataBANK0:
  3307                           
  3308                           ;initializer for _paused
  3309  012B  3401               	retlw	1
  3310                           
  3311                           ;initializer for _track_silent_night_length
  3312  012C  3490               	retlw	144
  3313                           
  3314                           ;initializer for _track_we_wish_length
  3315  012D  3430               	retlw	48
  3316                           
  3317                           ;initializer for _track_we_wish
  3318  012E  3476               	retlw	118
  3319  012F  3401               	retlw	1
  3320  0130  3458               	retlw	88
  3321  0131  3401               	retlw	1
  3322  0132  3458               	retlw	88
  3323  0133  344F               	retlw	79
  3324  0134  3458               	retlw	88
  3325  0135  345E               	retlw	94
  3326  0136  3469               	retlw	105
  3327  0137  3401               	retlw	1
  3328  0138  3469               	retlw	105
  3329  0139  3401               	retlw	1
  3330  013A  3469               	retlw	105
  3331  013B  3401               	retlw	1
  3332  013C  344F               	retlw	79
  3333  013D  3401               	retlw	1
  3334  013E  344F               	retlw	79
  3335  013F  3446               	retlw	70
  3336  0140  344F               	retlw	79
  3337  0141  3458               	retlw	88
  3338  0142  345E               	retlw	94
  3339  0143  3401               	retlw	1
  3340  0144  3476               	retlw	118
  3341  0145  3401               	retlw	1
  3342  0146  3476               	retlw	118
  3343  0147  3401               	retlw	1
  3344  0148  3446               	retlw	70
  3345  0149  3401               	retlw	1
  3346  014A  3446               	retlw	70
  3347  014B  3442               	retlw	66
  3348  014C  3446               	retlw	70
  3349  014D  344F               	retlw	79
  3350  014E  3458               	retlw	88
  3351  014F  3401               	retlw	1
  3352  0150  3469               	retlw	105
  3353  0151  3401               	retlw	1
  3354  0152  3476               	retlw	118
  3355  0153  3476               	retlw	118
  3356  0154  3469               	retlw	105
  3357  0155  3401               	retlw	1
  3358  0156  344F               	retlw	79
  3359  0157  3401               	retlw	1
  3360  0158  345E               	retlw	94
  3361  0159  3401               	retlw	1
  3362  015A  3458               	retlw	88
  3363  015B  3401               	retlw	1
  3364  015C  3401               	retlw	1
  3365  015D  3401               	retlw	1
  3366                           
  3367                           	psect	nvBANK0
  3368  0053                     __pnvBANK0:
  3369  0053                     _TMR0_InterruptHandler:
  3370  0053                     	ds	2
  3371  0055                     _TMR1_InterruptHandler:
  3372  0055                     	ds	2
  3373  0057                     _timer1ReloadVal:
  3374  0057                     	ds	2
  3375  0059                     _IOCCF4_InterruptHandler:
  3376  0059                     	ds	2
  3377  000B                     _INTCONbits	set	11
  3378  001A                     _LATCbits	set	26
  3379  0014                     _TRISC	set	20
  3380  0012                     _TRISA	set	18
  3381  001A                     _LATC	set	26
  3382  0018                     _LATA	set	24
  3383  020F                     _T1GCONbits	set	527
  3384  020E                     _T1CONbits	set	526
  3385  020E                     _T1CON	set	526
  3386  020C                     _TMR1L	set	524
  3387  020D                     _TMR1H	set	525
  3388  0211                     _T1CLK	set	529
  3389  0210                     _T1GATE	set	528
  3390  020F                     _T1GCON	set	527
  3391  028D                     _PR2	set	653
  3392  028C                     _TMR2	set	652
  3393  028E                     _T2CONbits	set	654
  3394  0291                     _T2RSTbits	set	657
  3395  028F                     _T2HLTbits	set	655
  3396  028E                     _T2CON	set	654
  3397  028C                     _T2TMR	set	652
  3398  028D                     _T2PR	set	653
  3399  0291                     _T2RST	set	657
  3400  028F                     _T2HLT	set	655
  3401  0290                     _T2CLKCON	set	656
  3402  0314                     _PWM3DCL	set	788
  3403  0315                     _PWM3DCH	set	789
  3404  0316                     _PWM3CON	set	790
  3405  059E                     _T0CON0bits	set	1438
  3406  059E                     _T0CON0	set	1438
  3407  059C                     _TMR0L	set	1436
  3408  059D                     _TMR0H	set	1437
  3409  059F                     _T0CON1	set	1439
  3410  0612                     _CWG1AS0bits	set	1554
  3411  0610                     _CWG1CON0	set	1552
  3412  060D                     _CWG1DAT	set	1549
  3413  060C                     _CWG1CLKCON	set	1548
  3414  0614                     _CWG1STR	set	1556
  3415  0613                     _CWG1AS1	set	1555
  3416  0612                     _CWG1AS0	set	1554
  3417  060F                     _CWG1DBF	set	1551
  3418  060E                     _CWG1DBR	set	1550
  3419  0611                     _CWG1CON1	set	1553
  3420  071A                     _PIE4bits	set	1818
  3421  070C                     _PIR0bits	set	1804
  3422  0716                     _PIE0bits	set	1814
  3423  0710                     _PIR4bits	set	1808
  3424  079B                     _PMD5	set	1947
  3425  079A                     _PMD4	set	1946
  3426  0799                     _PMD3	set	1945
  3427  0798                     _PMD2	set	1944
  3428  0797                     _PMD1	set	1943
  3429  0796                     _PMD0	set	1942
  3430  0892                     _OSCTUNE	set	2194
  3431  0890                     _OSCSTAT	set	2192
  3432  0893                     _OSCFRQ	set	2195
  3433  0891                     _OSCEN	set	2193
  3434  088F                     _OSCCON3	set	2191
  3435  088D                     _OSCCON1	set	2189
  3436  1EB1                     _CWG1PPS	set	7857
  3437  1F22                     _RC2PPS	set	7970
  3438  1F23                     _RC3PPS	set	7971
  3439  1F53                     _IOCCPbits	set	8019
  3440  1F54                     _IOCCNbits	set	8020
  3441  1F55                     _IOCCFbits	set	8021
  3442  1F52                     _INLVLC	set	8018
  3443  1F3C                     _INLVLA	set	7996
  3444  1F51                     _SLRCONC	set	8017
  3445  1F3B                     _SLRCONA	set	7995
  3446  1F50                     _ODCONC	set	8016
  3447  1F3A                     _ODCONA	set	7994
  3448  1F4F                     _WPUC	set	8015
  3449  1F39                     _WPUA	set	7993
  3450  1F38                     _ANSELA	set	7992
  3451  1F4E                     _ANSELC	set	8014
  3452                           
  3453                           	psect	cinit
  3454  0033                     start_initialization:	
  3455                           ; #config settings
  3456                           
  3457  0033                     __initialization:	;BIGRAM
  3458                           
  3459                           ; Initialize objects allocated to BIGRAM
  3460  0033  3057               	movlw	low __pidataBIGRAM
  3461  0034  0084               	movwf	4
  3462  0035  3080               	movlw	(high __pidataBIGRAM)| (0+128)
  3463  0036  0085               	movwf	5
  3464  0037  3060               	movlw	low (0+9056)
  3465  0038  0086               	movwf	6
  3466  0039  3023               	movlw	high (0+9056)
  3467  003A  0087               	movwf	7
  3468  003B  3000               	movlw	0
  3469  003C  00FF               	movwf	btemp+1
  3470  003D  3090               	movlw	144
  3471  003E  3182  22A8  3180   	fcall	init_ram
  3472                           
  3473                           ; Initialize objects allocated to BANK0
  3474  0041  302B               	movlw	low __pidataBANK0
  3475  0042  0084               	movwf	4
  3476  0043  3081               	movlw	(high __pidataBANK0)| (0+128)
  3477  0044  0085               	movwf	5
  3478  0045  3020               	movlw	low __pdataBANK0
  3479  0046  0086               	movwf	6
  3480  0047  3000               	movlw	high __pdataBANK0
  3481  0048  0087               	movwf	7
  3482  0049  3000               	movlw	0
  3483  004A  00FF               	movwf	btemp+1
  3484  004B  3033               	movlw	51
  3485  004C  3182  22A8  3180   	fcall	init_ram
  3486                           
  3487                           ; Clear objects allocated to COMMON
  3488  004F  01FA               	clrf	__pbssCOMMON& (0+127)
  3489  0050  01FB               	clrf	(__pbssCOMMON+1)& (0+127)
  3490                           
  3491                           ; Clear objects allocated to BANK0
  3492  0051  01DB               	clrf	__pbssBANK0& (0+127)
  3493  0052  01DC               	clrf	(__pbssBANK0+1)& (0+127)
  3494  0053                     end_of_initialization:	
  3495                           ;End of C runtime variable initialization code
  3496                           
  3497  0053                     __end_of__initialization:
  3498  0053  107E               	bcf	int$flags,0	;clear compiler interrupt flag (level 1)
  3499  0054  0140               	movlb	0
  3500  0055  3181  29F5         	ljmp	_main	;jump to C main() function
  3501                           
  3502                           	psect	bssCOMMON
  3503  007A                     __pbssCOMMON:
  3504  007A                     next_track@state:
  3505  007A                     	ds	1
  3506  007B                     IOCCF4_DefaultInterruptHandler@flag:
  3507  007B                     	ds	1
  3508                           
  3509                           	psect	bssBANK0
  3510  005B                     __pbssBANK0:
  3511  005B                     _current_track:
  3512  005B                     	ds	1
  3513  005C                     _bail_signal:
  3514  005C                     	ds	1
  3515                           
  3516                           	psect	dataBANK0
  3517  0020                     __pdataBANK0:
  3518  0020                     _paused:
  3519  0020                     	ds	1
  3520  0021                     _track_silent_night_length:
  3521  0021                     	ds	1
  3522  0022                     _track_we_wish_length:
  3523  0022                     	ds	1
  3524  0023                     _track_we_wish:
  3525  0023                     	ds	48
  3526                           
  3527                           	psect	inittext
  3528  02A8                     init_ram:
  3529  02A8  00FE               	movwf	btemp
  3530  02A9                     initloop:
  3531  02A9  0012               	moviw fsr0++
  3532  02AA  001E               	movwi fsr1++
  3533  02AB  3001               	movlw	1
  3534  02AC  02FE               	subwf	btemp,f
  3535  02AD  3000               	movlw	0
  3536  02AE  3BFF               	subwfb	btemp+1,f
  3537  02AF  087F               	movf	btemp+1,w
  3538  02B0  047E               	iorwf	btemp,w
  3539  02B1  1D03               	skipz
  3540  02B2  2AA9               	goto	initloop
  3541  02B3  3400               	retlw	0
  3542                           
  3543                           	psect	cstackCOMMON
  3544  0070                     __pcstackCOMMON:
  3545  0070                     ?_IOCCF4_DefaultInterruptHandler:
  3546  0070                     ??_IOCCF4_DefaultInterruptHandler:	
  3547                           ; 1 bytes @ 0x0
  3548                           
  3549  0070                     ?_IOCCF4_ISR:	
  3550                           ; 1 bytes @ 0x0
  3551                           
  3552  0070                     ?_PMD_Initialize:	
  3553                           ; 1 bytes @ 0x0
  3554                           
  3555  0070                     ?_OSCILLATOR_Initialize:	
  3556                           ; 1 bytes @ 0x0
  3557                           
  3558  0070                     ?_TMR1_Initialize:	
  3559                           ; 1 bytes @ 0x0
  3560                           
  3561  0070                     ?_TMR0_Initialize:	
  3562                           ; 1 bytes @ 0x0
  3563                           
  3564  0070                     ?_CWG_Initialize:	
  3565                           ; 1 bytes @ 0x0
  3566                           
  3567  0070                     ?_TMR0_ISR:	
  3568                           ; 1 bytes @ 0x0
  3569                           
  3570  0070                     ??_TMR0_ISR:	
  3571                           ; 1 bytes @ 0x0
  3572                           
  3573  0070                     ?_TMR1_ISR:	
  3574                           ; 1 bytes @ 0x0
  3575                           
  3576  0070                     ?_TMR1_DefaultInterruptHandler:	
  3577                           ; 1 bytes @ 0x0
  3578                           
  3579  0070                     ??_TMR1_DefaultInterruptHandler:	
  3580                           ; 1 bytes @ 0x0
  3581                           
  3582  0070                     ?_next_track:	
  3583                           ; 1 bytes @ 0x0
  3584                           
  3585  0070                     ?_TMR0_DefaultInterruptHandler:	
  3586                           ; 1 bytes @ 0x0
  3587                           
  3588  0070                     ??_TMR0_DefaultInterruptHandler:	
  3589                           ; 1 bytes @ 0x0
  3590                           
  3591  0070                     ?_PWM3_Initialize:	
  3592                           ; 1 bytes @ 0x0
  3593                           
  3594  0070                     ?_TMR2_Initialize:	
  3595                           ; 1 bytes @ 0x0
  3596                           
  3597  0070                     ?_TMR2_Period8BitSet:	
  3598                           ; 1 bytes @ 0x0
  3599                           
  3600  0070                     ?_PIN_MANAGER_Initialize:	
  3601                           ; 1 bytes @ 0x0
  3602                           
  3603  0070                     ?_PIN_MANAGER_IOC:	
  3604                           ; 1 bytes @ 0x0
  3605                           
  3606  0070                     ?_SYSTEM_Initialize:	
  3607                           ; 1 bytes @ 0x0
  3608                           
  3609  0070                     ?_INTERRUPT_InterruptManager:	
  3610                           ; 1 bytes @ 0x0
  3611                           
  3612  0070                     ?_TMR1_StartTimer:	
  3613                           ; 1 bytes @ 0x0
  3614                           
  3615  0070                     ?_TMR1_StopTimer:	
  3616                           ; 1 bytes @ 0x0
  3617                           
  3618  0070                     ?_TMR1_Reload:	
  3619                           ; 1 bytes @ 0x0
  3620                           
  3621  0070                     ?_main:	
  3622                           ; 1 bytes @ 0x0
  3623                           
  3624  0070                     ?i1_TMR1_WriteTimer:	
  3625                           ; 1 bytes @ 0x0
  3626                           
  3627  0070                     i1TMR1_WriteTimer@timerVal:	
  3628                           ; 1 bytes @ 0x0
  3629                           
  3630                           
  3631                           ; 2 bytes @ 0x0
  3632  0070                     	ds	1
  3633  0071                     ??_IOCCF4_ISR:
  3634  0071                     ??_PIN_MANAGER_IOC:	
  3635                           ; 1 bytes @ 0x1
  3636                           
  3637                           
  3638                           ; 1 bytes @ 0x1
  3639  0071                     	ds	1
  3640  0072                     ?_IOCCF4_SetInterruptHandler:
  3641  0072                     ??_PMD_Initialize:	
  3642                           ; 1 bytes @ 0x2
  3643                           
  3644  0072                     ??_OSCILLATOR_Initialize:	
  3645                           ; 1 bytes @ 0x2
  3646                           
  3647  0072                     ??_CWG_Initialize:	
  3648                           ; 1 bytes @ 0x2
  3649                           
  3650  0072                     ??_TMR1_ISR:	
  3651                           ; 1 bytes @ 0x2
  3652                           
  3653  0072                     ?_TMR1_SetInterruptHandler:	
  3654                           ; 1 bytes @ 0x2
  3655                           
  3656  0072                     ?_TMR0_SetInterruptHandler:	
  3657                           ; 1 bytes @ 0x2
  3658                           
  3659  0072                     ??_PWM3_Initialize:	
  3660                           ; 1 bytes @ 0x2
  3661                           
  3662  0072                     ??_TMR2_Initialize:	
  3663                           ; 1 bytes @ 0x2
  3664                           
  3665  0072                     ??_TMR2_Period8BitSet:	
  3666                           ; 1 bytes @ 0x2
  3667                           
  3668  0072                     ??_INTERRUPT_InterruptManager:	
  3669                           ; 1 bytes @ 0x2
  3670                           
  3671  0072                     ??_TMR1_StartTimer:	
  3672                           ; 1 bytes @ 0x2
  3673                           
  3674  0072                     ??_TMR1_StopTimer:	
  3675                           ; 1 bytes @ 0x2
  3676                           
  3677  0072                     ?_TMR1_WriteTimer:	
  3678                           ; 1 bytes @ 0x2
  3679                           
  3680  0072                     ??i1_TMR1_WriteTimer:	
  3681                           ; 1 bytes @ 0x2
  3682                           
  3683  0072                     TMR2_Period8BitSet@periodVal:	
  3684                           ; 1 bytes @ 0x2
  3685                           
  3686  0072                     IOCCF4_SetInterruptHandler@InterruptHandler:	
  3687                           ; 1 bytes @ 0x2
  3688                           
  3689  0072                     TMR1_WriteTimer@timerVal:	
  3690                           ; 2 bytes @ 0x2
  3691                           
  3692  0072                     TMR1_SetInterruptHandler@InterruptHandler:	
  3693                           ; 2 bytes @ 0x2
  3694                           
  3695  0072                     TMR0_SetInterruptHandler@InterruptHandler:	
  3696                           ; 2 bytes @ 0x2
  3697                           
  3698                           
  3699                           ; 2 bytes @ 0x2
  3700  0072                     	ds	2
  3701  0074                     ??_IOCCF4_SetInterruptHandler:
  3702  0074                     ??_TMR1_Initialize:	
  3703                           ; 1 bytes @ 0x4
  3704                           
  3705  0074                     ??_TMR0_Initialize:	
  3706                           ; 1 bytes @ 0x4
  3707                           
  3708  0074                     ??_TMR1_SetInterruptHandler:	
  3709                           ; 1 bytes @ 0x4
  3710                           
  3711  0074                     ?_play_track:	
  3712                           ; 1 bytes @ 0x4
  3713                           
  3714  0074                     ??_TMR0_SetInterruptHandler:	
  3715                           ; 1 bytes @ 0x4
  3716                           
  3717  0074                     ??_PIN_MANAGER_Initialize:	
  3718                           ; 1 bytes @ 0x4
  3719                           
  3720  0074                     ??_SYSTEM_Initialize:	
  3721                           ; 1 bytes @ 0x4
  3722                           
  3723  0074                     ??_TMR1_WriteTimer:	
  3724                           ; 1 bytes @ 0x4
  3725                           
  3726  0074                     ??_TMR1_Reload:	
  3727                           ; 1 bytes @ 0x4
  3728                           
  3729  0074                     play_track@track:	
  3730                           ; 1 bytes @ 0x4
  3731                           
  3732                           
  3733                           ; 2 bytes @ 0x4
  3734  0074                     	ds	2
  3735  0076                     play_track@length:
  3736                           
  3737                           ; 1 bytes @ 0x6
  3738  0076                     	ds	1
  3739  0077                     ??_play_track:
  3740                           
  3741                           ; 1 bytes @ 0x7
  3742  0077                     	ds	1
  3743  0078                     play_track@i:
  3744                           
  3745                           ; 2 bytes @ 0x8
  3746  0078                     	ds	2
  3747  007A                     ??_main:
  3748                           
  3749                           	psect	cstackBANK0
  3750  005D                     __pcstackBANK0:	
  3751                           ; 1 bytes @ 0xA
  3752                           
  3753  005D                     ??_next_track:
  3754                           
  3755                           ; 1 bytes @ 0x0
  3756  005D                     	ds	2
  3757                           
  3758                           	psect	maintext
  3759  01F5                     __pmaintext:	
  3760 ;;
  3761 ;;Main: autosize = 0, tempsize = 0, incstack = 0, save=0
  3762 ;;
  3763 ;; *************** function _main *****************
  3764 ;; Defined at:
  3765 ;;		line 5 in file "main.c"
  3766 ;; Parameters:    Size  Location     Type
  3767 ;;		None
  3768 ;; Auto vars:     Size  Location     Type
  3769 ;;		None
  3770 ;; Return value:  Size  Location     Type
  3771 ;;                  1    wreg      void 
  3772 ;; Registers used:
  3773 ;;		wreg, fsr0l, fsr0h, fsr1l, fsr1h, status,2, status,0, pclath, cstack
  3774 ;; Tracked objects:
  3775 ;;		On entry : B3F/0
  3776 ;;		On exit  : 0/0
  3777 ;;		Unchanged: 0/0
  3778 ;; Data sizes:     COMMON   BANK0   BANK1   BANK2   BANK3   BANK4   BANK5   BANK6   BANK7   BANK8   BANK9  BANK10  BANK1
      +1  BANK12
  3779 ;;      Params:         0       0       0       0       0       0       0       0       0       0       0       0       
      +0       0
  3780 ;;      Locals:         0       0       0       0       0       0       0       0       0       0       0       0       
      +0       0
  3781 ;;      Temps:          0       0       0       0       0       0       0       0       0       0       0       0       
      +0       0
  3782 ;;      Totals:         0       0       0       0       0       0       0       0       0       0       0       0       
      +0       0
  3783 ;;Total ram usage:        0 bytes
  3784 ;; Hardware stack levels required when called: 8
  3785 ;; This function calls:
  3786 ;;		_SYSTEM_Initialize
  3787 ;;		_next_track
  3788 ;; This function is called by:
  3789 ;;		Startup code after reset
  3790 ;; This function uses a non-reentrant model
  3791 ;;
  3792                           
  3793                           
  3794                           ;psect for function _main
  3795  01F5                     _main:
  3796  01F5                     l1645:	
  3797                           ;incstack = 0
  3798                           ; Regs used in _main: [wreg-fsr1h+status,2+status,0+pclath+cstack]
  3799                           
  3800                           
  3801                           ;main.c: 8:     SYSTEM_Initialize();
  3802  01F5  3181  21DC  3181   	fcall	_SYSTEM_Initialize
  3803  01F8                     l1647:
  3804                           
  3805                           ;main.c: 9:     (INTCONbits.GIE = 1);
  3806  01F8  178B               	bsf	11,7	;volatile
  3807  01F9                     l1649:
  3808                           
  3809                           ;main.c: 10:     (INTCONbits.PEIE = 1);
  3810  01F9  170B               	bsf	11,6	;volatile
  3811  01FA                     l1651:
  3812                           
  3813                           ;main.c: 12:     next_track();
  3814  01FA  3180  20E7  3181   	fcall	_next_track
  3815  01FD                     l1653:
  3816                           
  3817                           ;main.c: 15:         while(paused){
  3818  01FD  0140               	movlb	0	; select bank0
  3819  01FE  0820               	movf	_paused,w
  3820  01FF  1D03               	btfss	3,2
  3821  0200  2A02               	goto	u421
  3822  0201  2A03               	goto	u420
  3823  0202                     u421:
  3824  0202  29FD               	goto	l1653
  3825  0203                     u420:
  3826  0203                     l1655:
  3827                           
  3828                           ;main.c: 18:         next_track();
  3829  0203  3180  20E7  3181   	fcall	_next_track
  3830  0206                     l1657:
  3831                           
  3832                           ;main.c: 19:         paused = 1;
  3833  0206  0140               	movlb	0	; select bank0
  3834  0207  01A0               	clrf	_paused
  3835  0208  0AA0               	incf	_paused,f
  3836  0209  29FD               	goto	l1653
  3837  020A  3180  2831         	ljmp	start
  3838  020C                     __end_of_main:
  3839                           
  3840                           	psect	text1
  3841  00E7                     __ptext1:	
  3842 ;; *************** function _next_track *****************
  3843 ;; Defined at:
  3844 ;;		line 23 in file "main.c"
  3845 ;; Parameters:    Size  Location     Type
  3846 ;;		None
  3847 ;; Auto vars:     Size  Location     Type
  3848 ;;		None
  3849 ;; Return value:  Size  Location     Type
  3850 ;;                  1    wreg      void 
  3851 ;; Registers used:
  3852 ;;		wreg, fsr0l, fsr0h, fsr1l, fsr1h, status,2, status,0, pclath, cstack
  3853 ;; Tracked objects:
  3854 ;;		On entry : 0/0
  3855 ;;		On exit  : 0/0
  3856 ;;		Unchanged: 0/0
  3857 ;; Data sizes:     COMMON   BANK0   BANK1   BANK2   BANK3   BANK4   BANK5   BANK6   BANK7   BANK8   BANK9  BANK10  BANK1
      +1  BANK12
  3858 ;;      Params:         0       0       0       0       0       0       0       0       0       0       0       0       
      +0       0
  3859 ;;      Locals:         0       0       0       0       0       0       0       0       0       0       0       0       
      +0       0
  3860 ;;      Temps:          0       2       0       0       0       0       0       0       0       0       0       0       
      +0       0
  3861 ;;      Totals:         0       2       0       0       0       0       0       0       0       0       0       0       
      +0       0
  3862 ;;Total ram usage:        2 bytes
  3863 ;; Hardware stack levels used: 1
  3864 ;; Hardware stack levels required when called: 7
  3865 ;; This function calls:
  3866 ;;		_TMR2_Period8BitSet
  3867 ;;		_play_track
  3868 ;; This function is called by:
  3869 ;;		_main
  3870 ;; This function uses a non-reentrant model
  3871 ;;
  3872                           
  3873                           
  3874                           ;psect for function _next_track
  3875  00E7                     _next_track:
  3876  00E7                     l1625:	
  3877                           ;incstack = 0
  3878                           ; Regs used in _next_track: [wreg-fsr1h+status,2+status,0+pclath+cstack]
  3879                           
  3880                           
  3881                           ;main.c: 24:     static uint8_t state = 0;;main.c: 25:     ++state;
  3882  00E7  3001               	movlw	1
  3883  00E8  0140               	movlb	0	; select bank0
  3884  00E9  00DD               	movwf	??_next_track
  3885  00EA  085D               	movf	??_next_track,w
  3886  00EB  07FA               	addwf	next_track@state,f
  3887                           
  3888                           ;main.c: 27:     if (state == 4) {
  3889  00EC  3004               	movlw	4
  3890  00ED  067A               	xorwf	next_track@state,w
  3891  00EE  1D03               	btfss	3,2
  3892  00EF  28F1               	goto	u411
  3893  00F0  28F2               	goto	u410
  3894  00F1                     u411:
  3895  00F1  2917               	goto	l1639
  3896  00F2                     u410:
  3897  00F2                     l1627:
  3898                           
  3899                           ;main.c: 28:         state = 1;
  3900  00F2  01FA               	clrf	next_track@state
  3901  00F3  0AFA               	incf	next_track@state,f
  3902  00F4  2917               	goto	l1639
  3903  00F5                     l1629:
  3904                           
  3905                           ;main.c: 32:             TMR2_Period8BitSet(0);
  3906  00F5  3000               	movlw	0
  3907  00F6  3182  22F2  3180   	fcall	_TMR2_Period8BitSet
  3908                           
  3909                           ;main.c: 33:             break;
  3910  00F9  292A               	goto	l382
  3911  00FA                     l1631:
  3912  00FA  3023               	movlw	low _track_we_wish
  3913  00FB  00F4               	movwf	play_track@track
  3914  00FC  3000               	movlw	high _track_we_wish
  3915  00FD  00F5               	movwf	play_track@track+1
  3916  00FE  3030               	movlw	48
  3917  00FF  00DD               	movwf	??_next_track
  3918  0100  085D               	movf	??_next_track,w
  3919  0101  00F6               	movwf	play_track@length
  3920  0102  3181  215E  3180   	fcall	_play_track
  3921                           
  3922                           ;main.c: 36:             break;
  3923  0105  292A               	goto	l382
  3924  0106                     l1633:
  3925  0106  3060               	movlw	96
  3926  0107  00F4               	movwf	play_track@track
  3927  0108  3023               	movlw	35
  3928  0109  00F5               	movwf	play_track@track+1
  3929  010A  3090               	movlw	144
  3930  010B  00DD               	movwf	??_next_track
  3931  010C  085D               	movf	??_next_track,w
  3932  010D  00F6               	movwf	play_track@length
  3933  010E  3181  215E  3180   	fcall	_play_track
  3934                           
  3935                           ;main.c: 39:             break;
  3936  0111  292A               	goto	l382
  3937  0112                     l1635:
  3938                           
  3939                           ;main.c: 41:             TMR2_Period8BitSet(0);
  3940  0112  3000               	movlw	0
  3941  0113  3182  22F2  3180   	fcall	_TMR2_Period8BitSet
  3942                           
  3943                           ;main.c: 42:             break;
  3944  0116  292A               	goto	l382
  3945  0117                     l1639:
  3946  0117  087A               	movf	next_track@state,w
  3947  0118  00DD               	movwf	??_next_track
  3948  0119  01DE               	clrf	??_next_track+1
  3949                           
  3950                           ; Switch on 2 bytes has been partitioned into a top level switch of size 1, and 1 sub-sw
      +                          itches
  3951                           ; Switch size 1, requested type "simple"
  3952                           ; Number of cases is 1, Range of values is 0 to 0
  3953                           ; switch strategies available:
  3954                           ; Name         Instructions Cycles
  3955                           ; simple_byte            4     3 (average)
  3956                           ; direct_byte            8     6 (fixed)
  3957                           ; jumptable            260     6 (fixed)
  3958                           ;	Chosen strategy is simple_byte
  3959  011A  085E               	movf	??_next_track+1,w
  3960  011B  3A00               	xorlw	0	; case 0
  3961  011C  1903               	skipnz
  3962  011D  291F               	goto	l1679
  3963  011E  2912               	goto	l1635
  3964  011F                     l1679:
  3965                           
  3966                           ; Switch size 1, requested type "simple"
  3967                           ; Number of cases is 3, Range of values is 1 to 3
  3968                           ; switch strategies available:
  3969                           ; Name         Instructions Cycles
  3970                           ; simple_byte           10     6 (average)
  3971                           ; direct_byte           15     9 (fixed)
  3972                           ; jumptable            263     9 (fixed)
  3973                           ;	Chosen strategy is simple_byte
  3974  011F  085D               	movf	??_next_track,w
  3975  0120  3A01               	xorlw	1	; case 1
  3976  0121  1903               	skipnz
  3977  0122  28F5               	goto	l1629
  3978  0123  3A03               	xorlw	3	; case 2
  3979  0124  1903               	skipnz
  3980  0125  28FA               	goto	l1631
  3981  0126  3A01               	xorlw	1	; case 3
  3982  0127  1903               	skipnz
  3983  0128  2906               	goto	l1633
  3984  0129  2912               	goto	l1635
  3985  012A                     l382:
  3986  012A  0008               	return
  3987  012B                     __end_of_next_track:
  3988                           
  3989                           	psect	text2
  3990  015E                     __ptext2:	
  3991 ;; *************** function _play_track *****************
  3992 ;; Defined at:
  3993 ;;		line 10 in file "play_track.c"
  3994 ;; Parameters:    Size  Location     Type
  3995 ;;  track           2    4[COMMON] PTR unsigned char 
  3996 ;;		 -> track_silent_night(144), track_we_wish(48), 
  3997 ;;  length          1    6[COMMON] unsigned char 
  3998 ;; Auto vars:     Size  Location     Type
  3999 ;;  i               2    8[COMMON] int 
  4000 ;; Return value:  Size  Location     Type
  4001 ;;                  1    wreg      void 
  4002 ;; Registers used:
  4003 ;;		wreg, fsr1l, fsr1h, status,2, status,0, pclath, cstack
  4004 ;; Tracked objects:
  4005 ;;		On entry : 0/0
  4006 ;;		On exit  : 0/0
  4007 ;;		Unchanged: 0/0
  4008 ;; Data sizes:     COMMON   BANK0   BANK1   BANK2   BANK3   BANK4   BANK5   BANK6   BANK7   BANK8   BANK9  BANK10  BANK1
      +1  BANK12
  4009 ;;      Params:         3       0       0       0       0       0       0       0       0       0       0       0       
      +0       0
  4010 ;;      Locals:         2       0       0       0       0       0       0       0       0       0       0       0       
      +0       0
  4011 ;;      Temps:          1       0       0       0       0       0       0       0       0       0       0       0       
      +0       0
  4012 ;;      Totals:         6       0       0       0       0       0       0       0       0       0       0       0       
      +0       0
  4013 ;;Total ram usage:        6 bytes
  4014 ;; Hardware stack levels used: 1
  4015 ;; Hardware stack levels required when called: 6
  4016 ;; This function calls:
  4017 ;;		_TMR1_Reload
  4018 ;;		_TMR1_StartTimer
  4019 ;;		_TMR1_StopTimer
  4020 ;;		_TMR2_Period8BitSet
  4021 ;; This function is called by:
  4022 ;;		_next_track
  4023 ;; This function uses a non-reentrant model
  4024 ;;
  4025                           
  4026                           
  4027                           ;psect for function _play_track
  4028  015E                     _play_track:
  4029  015E                     l1493:	
  4030                           ;incstack = 0
  4031                           ; Regs used in _play_track: [wreg+fsr1l+fsr1h+status,2+status,0+pclath+cstack]
  4032                           
  4033                           
  4034                           ;play_track.c: 12:     bail_signal = 0;
  4035  015E  0140               	movlb	0	; select bank0
  4036  015F  01DC               	clrf	_bail_signal
  4037                           
  4038                           ;play_track.c: 15:     for(int i=0; i < length; i++){
  4039  0160  01F8               	clrf	play_track@i
  4040  0161  01F9               	clrf	play_track@i+1
  4041  0162  2981               	goto	l409
  4042  0163                     l1495:
  4043                           
  4044                           ;play_track.c: 16:         TMR2_Period8BitSet(track[i]);
  4045  0163  0878               	movf	play_track@i,w
  4046  0164  0774               	addwf	play_track@track,w
  4047  0165  0086               	movwf	6
  4048  0166  0879               	movf	play_track@i+1,w
  4049  0167  3D75               	addwfc	play_track@track+1,w
  4050  0168  0087               	movwf	7
  4051  0169  0801               	movf	1,w
  4052  016A  3182  22F2  3181   	fcall	_TMR2_Period8BitSet
  4053  016D                     l1497:
  4054                           
  4055                           ;play_track.c: 17:         TMR1_StartTimer();
  4056  016D  3182  22FA  3181   	fcall	_TMR1_StartTimer
  4057  0170                     l411:	
  4058                           ;play_track.c: 20:         }
  4059                           
  4060                           
  4061                           ;play_track.c: 18:         while(PIR4bits.TMR1IF == 0) {
  4062  0170  014E               	movlb	14	; select bank14
  4063  0171  1C10               	btfss	16,0	;volatile
  4064  0172  2974               	goto	u261
  4065  0173  2975               	goto	u260
  4066  0174                     u261:
  4067  0174  2970               	goto	l411
  4068  0175                     u260:
  4069  0175                     l1499:
  4070                           
  4071                           ;play_track.c: 21:         TMR1_StopTimer();
  4072  0175  3182  22F7  3181   	fcall	_TMR1_StopTimer
  4073  0178                     l1501:
  4074                           
  4075                           ;play_track.c: 22:         TMR1_Reload();
  4076  0178  3182  22BE  3181   	fcall	_TMR1_Reload
  4077  017B                     l1503:
  4078                           
  4079                           ;play_track.c: 23:         PIR4bits.TMR1IF = 0;
  4080  017B  014E               	movlb	14	; select bank14
  4081  017C  1010               	bcf	16,0	;volatile
  4082                           
  4083                           ;play_track.c: 27:     }
  4084  017D  3001               	movlw	1
  4085  017E  07F8               	addwf	play_track@i,f
  4086  017F  3000               	movlw	0
  4087  0180  3DF9               	addwfc	play_track@i+1,f
  4088  0181                     l409:
  4089  0181  0879               	movf	play_track@i+1,w
  4090  0182  3A80               	xorlw	128
  4091  0183  00F7               	movwf	??_play_track
  4092  0184  3080               	movlw	128
  4093  0185  0277               	subwf	??_play_track,w
  4094  0186  1D03               	skipz
  4095  0187  298A               	goto	u275
  4096  0188  0876               	movf	play_track@length,w
  4097  0189  0278               	subwf	play_track@i,w
  4098  018A                     u275:
  4099  018A  1C03               	skipc
  4100  018B  298D               	goto	u271
  4101  018C  298E               	goto	u270
  4102  018D                     u271:
  4103  018D  2963               	goto	l1495
  4104  018E                     u270:
  4105  018E                     l415:
  4106  018E  0008               	return
  4107  018F                     __end_of_play_track:
  4108                           
  4109                           	psect	text3
  4110  02F2                     __ptext3:	
  4111 ;; *************** function _TMR2_Period8BitSet *****************
  4112 ;; Defined at:
  4113 ;;		line 147 in file "mcc_generated_files/tmr2.c"
  4114 ;; Parameters:    Size  Location     Type
  4115 ;;  periodVal       1    wreg     unsigned char 
  4116 ;; Auto vars:     Size  Location     Type
  4117 ;;  periodVal       1    2[COMMON] unsigned char 
  4118 ;; Return value:  Size  Location     Type
  4119 ;;                  1    wreg      void 
  4120 ;; Registers used:
  4121 ;;		wreg
  4122 ;; Tracked objects:
  4123 ;;		On entry : 0/0
  4124 ;;		On exit  : 0/0
  4125 ;;		Unchanged: 0/0
  4126 ;; Data sizes:     COMMON   BANK0   BANK1   BANK2   BANK3   BANK4   BANK5   BANK6   BANK7   BANK8   BANK9  BANK10  BANK1
      +1  BANK12
  4127 ;;      Params:         0       0       0       0       0       0       0       0       0       0       0       0       
      +0       0
  4128 ;;      Locals:         1       0       0       0       0       0       0       0       0       0       0       0       
      +0       0
  4129 ;;      Temps:          0       0       0       0       0       0       0       0       0       0       0       0       
      +0       0
  4130 ;;      Totals:         1       0       0       0       0       0       0       0       0       0       0       0       
      +0       0
  4131 ;;Total ram usage:        1 bytes
  4132 ;; Hardware stack levels used: 1
  4133 ;; Hardware stack levels required when called: 4
  4134 ;; This function calls:
  4135 ;;		Nothing
  4136 ;; This function is called by:
  4137 ;;		_next_track
  4138 ;;		_play_track
  4139 ;;		_TMR2_LoadPeriodRegister
  4140 ;; This function uses a non-reentrant model
  4141 ;;
  4142                           
  4143                           
  4144                           ;psect for function _TMR2_Period8BitSet
  4145  02F2                     _TMR2_Period8BitSet:
  4146                           
  4147                           ;incstack = 0
  4148                           ; Regs used in _TMR2_Period8BitSet: [wreg]
  4149                           ;TMR2_Period8BitSet@periodVal stored from wreg
  4150  02F2  00F2               	movwf	TMR2_Period8BitSet@periodVal
  4151  02F3                     l1351:
  4152                           
  4153                           ;mcc_generated_files/tmr2.c: 147: void TMR2_Period8BitSet(uint8_t periodVal);mcc_generat
      +                          ed_files/tmr2.c: 148: {;mcc_generated_files/tmr2.c: 149:    PR2 = periodVal;
  4154  02F3  0872               	movf	TMR2_Period8BitSet@periodVal,w
  4155  02F4  0145               	movlb	5	; select bank5
  4156  02F5  008D               	movwf	13	;volatile
  4157  02F6                     l72:
  4158  02F6  0008               	return
  4159  02F7                     __end_of_TMR2_Period8BitSet:
  4160                           
  4161                           	psect	text4
  4162  02F7                     __ptext4:	
  4163 ;; *************** function _TMR1_StopTimer *****************
  4164 ;; Defined at:
  4165 ;;		line 105 in file "mcc_generated_files/tmr1.c"
  4166 ;; Parameters:    Size  Location     Type
  4167 ;;		None
  4168 ;; Auto vars:     Size  Location     Type
  4169 ;;		None
  4170 ;; Return value:  Size  Location     Type
  4171 ;;                  1    wreg      void 
  4172 ;; Registers used:
  4173 ;;		None
  4174 ;; Tracked objects:
  4175 ;;		On entry : 0/0
  4176 ;;		On exit  : 0/0
  4177 ;;		Unchanged: 0/0
  4178 ;; Data sizes:     COMMON   BANK0   BANK1   BANK2   BANK3   BANK4   BANK5   BANK6   BANK7   BANK8   BANK9  BANK10  BANK1
      +1  BANK12
  4179 ;;      Params:         0       0       0       0       0       0       0       0       0       0       0       0       
      +0       0
  4180 ;;      Locals:         0       0       0       0       0       0       0       0       0       0       0       0       
      +0       0
  4181 ;;      Temps:          0       0       0       0       0       0       0       0       0       0       0       0       
      +0       0
  4182 ;;      Totals:         0       0       0       0       0       0       0       0       0       0       0       0       
      +0       0
  4183 ;;Total ram usage:        0 bytes
  4184 ;; Hardware stack levels used: 1
  4185 ;; Hardware stack levels required when called: 4
  4186 ;; This function calls:
  4187 ;;		Nothing
  4188 ;; This function is called by:
  4189 ;;		_play_track
  4190 ;; This function uses a non-reentrant model
  4191 ;;
  4192                           
  4193                           
  4194                           ;psect for function _TMR1_StopTimer
  4195  02F7                     _TMR1_StopTimer:
  4196  02F7                     l1365:	
  4197                           ;incstack = 0
  4198                           ; Regs used in _TMR1_StopTimer: []
  4199                           
  4200                           
  4201                           ;mcc_generated_files/tmr1.c: 108:     T1CONbits.TMR1ON = 0;
  4202  02F7  0144               	movlb	4	; select bank4
  4203  02F8  100E               	bcf	14,0	;volatile
  4204  02F9                     l308:
  4205  02F9  0008               	return
  4206  02FA                     __end_of_TMR1_StopTimer:
  4207                           
  4208                           	psect	text5
  4209  02FA                     __ptext5:	
  4210 ;; *************** function _TMR1_StartTimer *****************
  4211 ;; Defined at:
  4212 ;;		line 99 in file "mcc_generated_files/tmr1.c"
  4213 ;; Parameters:    Size  Location     Type
  4214 ;;		None
  4215 ;; Auto vars:     Size  Location     Type
  4216 ;;		None
  4217 ;; Return value:  Size  Location     Type
  4218 ;;                  1    wreg      void 
  4219 ;; Registers used:
  4220 ;;		None
  4221 ;; Tracked objects:
  4222 ;;		On entry : 0/0
  4223 ;;		On exit  : 0/0
  4224 ;;		Unchanged: 0/0
  4225 ;; Data sizes:     COMMON   BANK0   BANK1   BANK2   BANK3   BANK4   BANK5   BANK6   BANK7   BANK8   BANK9  BANK10  BANK1
      +1  BANK12
  4226 ;;      Params:         0       0       0       0       0       0       0       0       0       0       0       0       
      +0       0
  4227 ;;      Locals:         0       0       0       0       0       0       0       0       0       0       0       0       
      +0       0
  4228 ;;      Temps:          0       0       0       0       0       0       0       0       0       0       0       0       
      +0       0
  4229 ;;      Totals:         0       0       0       0       0       0       0       0       0       0       0       0       
      +0       0
  4230 ;;Total ram usage:        0 bytes
  4231 ;; Hardware stack levels used: 1
  4232 ;; Hardware stack levels required when called: 4
  4233 ;; This function calls:
  4234 ;;		Nothing
  4235 ;; This function is called by:
  4236 ;;		_play_track
  4237 ;; This function uses a non-reentrant model
  4238 ;;
  4239                           
  4240                           
  4241                           ;psect for function _TMR1_StartTimer
  4242  02FA                     _TMR1_StartTimer:
  4243  02FA                     l1363:	
  4244                           ;incstack = 0
  4245                           ; Regs used in _TMR1_StartTimer: []
  4246                           
  4247                           
  4248                           ;mcc_generated_files/tmr1.c: 102:     T1CONbits.TMR1ON = 1;
  4249  02FA  0144               	movlb	4	; select bank4
  4250  02FB  140E               	bsf	14,0	;volatile
  4251  02FC                     l305:
  4252  02FC  0008               	return
  4253  02FD                     __end_of_TMR1_StartTimer:
  4254                           
  4255                           	psect	text6
  4256  02BE                     __ptext6:	
  4257 ;; *************** function _TMR1_Reload *****************
  4258 ;; Defined at:
  4259 ;;		line 149 in file "mcc_generated_files/tmr1.c"
  4260 ;; Parameters:    Size  Location     Type
  4261 ;;		None
  4262 ;; Auto vars:     Size  Location     Type
  4263 ;;		None
  4264 ;; Return value:  Size  Location     Type
  4265 ;;                  1    wreg      void 
  4266 ;; Registers used:
  4267 ;;		wreg, status,2, status,0, pclath, cstack
  4268 ;; Tracked objects:
  4269 ;;		On entry : 0/0
  4270 ;;		On exit  : 0/0
  4271 ;;		Unchanged: 0/0
  4272 ;; Data sizes:     COMMON   BANK0   BANK1   BANK2   BANK3   BANK4   BANK5   BANK6   BANK7   BANK8   BANK9  BANK10  BANK1
      +1  BANK12
  4273 ;;      Params:         0       0       0       0       0       0       0       0       0       0       0       0       
      +0       0
  4274 ;;      Locals:         0       0       0       0       0       0       0       0       0       0       0       0       
      +0       0
  4275 ;;      Temps:          0       0       0       0       0       0       0       0       0       0       0       0       
      +0       0
  4276 ;;      Totals:         0       0       0       0       0       0       0       0       0       0       0       0       
      +0       0
  4277 ;;Total ram usage:        0 bytes
  4278 ;; Hardware stack levels used: 1
  4279 ;; Hardware stack levels required when called: 5
  4280 ;; This function calls:
  4281 ;;		_TMR1_WriteTimer
  4282 ;; This function is called by:
  4283 ;;		_play_track
  4284 ;; This function uses a non-reentrant model
  4285 ;;
  4286                           
  4287                           
  4288                           ;psect for function _TMR1_Reload
  4289  02BE                     _TMR1_Reload:
  4290  02BE                     l1367:	
  4291                           ;incstack = 0
  4292                           ; Regs used in _TMR1_Reload: [wreg+status,2+status,0+pclath+cstack]
  4293                           
  4294                           
  4295                           ;mcc_generated_files/tmr1.c: 151:     TMR1_WriteTimer(timer1ReloadVal);
  4296  02BE  0140               	movlb	0	; select bank0
  4297  02BF  0858               	movf	_timer1ReloadVal+1,w	;volatile
  4298  02C0  00F3               	movwf	TMR1_WriteTimer@timerVal+1
  4299  02C1  0857               	movf	_timer1ReloadVal,w	;volatile
  4300  02C2  00F2               	movwf	TMR1_WriteTimer@timerVal
  4301  02C3  3182  224B  3182   	fcall	_TMR1_WriteTimer
  4302  02C6                     l319:
  4303  02C6  0008               	return
  4304  02C7                     __end_of_TMR1_Reload:
  4305                           
  4306                           	psect	text7
  4307  024B                     __ptext7:	
  4308 ;; *************** function _TMR1_WriteTimer *****************
  4309 ;; Defined at:
  4310 ;;		line 127 in file "mcc_generated_files/tmr1.c"
  4311 ;; Parameters:    Size  Location     Type
  4312 ;;  timerVal        2    2[COMMON] unsigned short 
  4313 ;; Auto vars:     Size  Location     Type
  4314 ;;		None
  4315 ;; Return value:  Size  Location     Type
  4316 ;;                  1    wreg      void 
  4317 ;; Registers used:
  4318 ;;		wreg, status,2
  4319 ;; Tracked objects:
  4320 ;;		On entry : 0/0
  4321 ;;		On exit  : 0/0
  4322 ;;		Unchanged: 0/0
  4323 ;; Data sizes:     COMMON   BANK0   BANK1   BANK2   BANK3   BANK4   BANK5   BANK6   BANK7   BANK8   BANK9  BANK10  BANK1
      +1  BANK12
  4324 ;;      Params:         2       0       0       0       0       0       0       0       0       0       0       0       
      +0       0
  4325 ;;      Locals:         0       0       0       0       0       0       0       0       0       0       0       0       
      +0       0
  4326 ;;      Temps:          0       0       0       0       0       0       0       0       0       0       0       0       
      +0       0
  4327 ;;      Totals:         2       0       0       0       0       0       0       0       0       0       0       0       
      +0       0
  4328 ;;Total ram usage:        2 bytes
  4329 ;; Hardware stack levels used: 1
  4330 ;; Hardware stack levels required when called: 4
  4331 ;; This function calls:
  4332 ;;		Nothing
  4333 ;; This function is called by:
  4334 ;;		_TMR1_Reload
  4335 ;; This function uses a non-reentrant model
  4336 ;;
  4337                           
  4338                           
  4339                           ;psect for function _TMR1_WriteTimer
  4340  024B                     _TMR1_WriteTimer:
  4341  024B                     l1337:	
  4342                           ;incstack = 0
  4343                           ; Regs used in _TMR1_WriteTimer: [wreg+status,2]
  4344                           
  4345                           
  4346                           ;mcc_generated_files/tmr1.c: 127: void TMR1_WriteTimer(uint16_t timerVal);mcc_generated_
      +                          files/tmr1.c: 128: {;mcc_generated_files/tmr1.c: 129:     if (T1CONbits.nT1SYNC == 1)
  4347  024B  0144               	movlb	4	; select bank4
  4348  024C  1D0E               	btfss	14,2	;volatile
  4349  024D  2A4F               	goto	u221
  4350  024E  2A50               	goto	u220
  4351  024F                     u221:
  4352  024F  2A57               	goto	l1347
  4353  0250                     u220:
  4354  0250                     l1339:
  4355                           
  4356                           ;mcc_generated_files/tmr1.c: 130:     {;mcc_generated_files/tmr1.c: 132:         T1CONbi
      +                          ts.TMR1ON = 0;
  4357  0250  100E               	bcf	14,0	;volatile
  4358  0251                     l1341:
  4359                           
  4360                           ;mcc_generated_files/tmr1.c: 135:         TMR1H = (uint8_t)(timerVal >> 8);
  4361  0251  0873               	movf	TMR1_WriteTimer@timerVal+1,w
  4362  0252  008D               	movwf	13	;volatile
  4363  0253                     l1343:
  4364                           
  4365                           ;mcc_generated_files/tmr1.c: 136:         TMR1L = (uint8_t)timerVal;
  4366  0253  0872               	movf	TMR1_WriteTimer@timerVal,w
  4367  0254  008C               	movwf	12	;volatile
  4368  0255                     l1345:
  4369                           
  4370                           ;mcc_generated_files/tmr1.c: 139:         T1CONbits.TMR1ON =1;
  4371  0255  140E               	bsf	14,0	;volatile
  4372                           
  4373                           ;mcc_generated_files/tmr1.c: 140:     }
  4374  0256  2A5B               	goto	l316
  4375  0257                     l1347:
  4376                           
  4377                           ;mcc_generated_files/tmr1.c: 142:     {;mcc_generated_files/tmr1.c: 144:         TMR1H =
      +                           (uint8_t)(timerVal >> 8);
  4378  0257  0873               	movf	TMR1_WriteTimer@timerVal+1,w
  4379  0258  008D               	movwf	13	;volatile
  4380  0259                     l1349:
  4381                           
  4382                           ;mcc_generated_files/tmr1.c: 145:         TMR1L = (uint8_t)timerVal;
  4383  0259  0872               	movf	TMR1_WriteTimer@timerVal,w
  4384  025A  008C               	movwf	12	;volatile
  4385  025B                     l316:
  4386  025B  0008               	return
  4387  025C                     __end_of_TMR1_WriteTimer:
  4388                           
  4389                           	psect	text8
  4390  01DC                     __ptext8:	
  4391 ;; *************** function _SYSTEM_Initialize *****************
  4392 ;; Defined at:
  4393 ;;		line 50 in file "mcc_generated_files/mcc.c"
  4394 ;; Parameters:    Size  Location     Type
  4395 ;;		None
  4396 ;; Auto vars:     Size  Location     Type
  4397 ;;		None
  4398 ;; Return value:  Size  Location     Type
  4399 ;;                  1    wreg      void 
  4400 ;; Registers used:
  4401 ;;		wreg, status,2, status,0, pclath, cstack
  4402 ;; Tracked objects:
  4403 ;;		On entry : 0/0
  4404 ;;		On exit  : 0/0
  4405 ;;		Unchanged: 0/0
  4406 ;; Data sizes:     COMMON   BANK0   BANK1   BANK2   BANK3   BANK4   BANK5   BANK6   BANK7   BANK8   BANK9  BANK10  BANK1
      +1  BANK12
  4407 ;;      Params:         0       0       0       0       0       0       0       0       0       0       0       0       
      +0       0
  4408 ;;      Locals:         0       0       0       0       0       0       0       0       0       0       0       0       
      +0       0
  4409 ;;      Temps:          0       0       0       0       0       0       0       0       0       0       0       0       
      +0       0
  4410 ;;      Totals:         0       0       0       0       0       0       0       0       0       0       0       0       
      +0       0
  4411 ;;Total ram usage:        0 bytes
  4412 ;; Hardware stack levels used: 1
  4413 ;; Hardware stack levels required when called: 6
  4414 ;; This function calls:
  4415 ;;		_CWG_Initialize
  4416 ;;		_OSCILLATOR_Initialize
  4417 ;;		_PIN_MANAGER_Initialize
  4418 ;;		_PMD_Initialize
  4419 ;;		_PWM3_Initialize
  4420 ;;		_TMR0_Initialize
  4421 ;;		_TMR1_Initialize
  4422 ;;		_TMR2_Initialize
  4423 ;; This function is called by:
  4424 ;;		_main
  4425 ;; This function uses a non-reentrant model
  4426 ;;
  4427                           
  4428                           
  4429                           ;psect for function _SYSTEM_Initialize
  4430  01DC                     _SYSTEM_Initialize:
  4431  01DC                     l1523:	
  4432                           ;incstack = 0
  4433                           ; Regs used in _SYSTEM_Initialize: [wreg+status,2+status,0+pclath+cstack]
  4434                           
  4435                           
  4436                           ;mcc_generated_files/mcc.c: 52:     PMD_Initialize();
  4437  01DC  3182  22D8  3181   	fcall	_PMD_Initialize
  4438  01DF                     l1525:
  4439                           
  4440                           ;mcc_generated_files/mcc.c: 53:     PIN_MANAGER_Initialize();
  4441  01DF  3181  218F  3181   	fcall	_PIN_MANAGER_Initialize
  4442  01E2                     l1527:
  4443                           
  4444                           ;mcc_generated_files/mcc.c: 54:     OSCILLATOR_Initialize();
  4445  01E2  3182  22B4  3181   	fcall	_OSCILLATOR_Initialize
  4446  01E5                     l1529:
  4447                           
  4448                           ;mcc_generated_files/mcc.c: 55:     PWM3_Initialize();
  4449  01E5  3182  22D0  3181   	fcall	_PWM3_Initialize
  4450  01E8                     l1531:
  4451                           
  4452                           ;mcc_generated_files/mcc.c: 56:     TMR2_Initialize();
  4453  01E8  3182  229A  3181   	fcall	_TMR2_Initialize
  4454  01EB                     l1533:
  4455                           
  4456                           ;mcc_generated_files/mcc.c: 57:     TMR1_Initialize();
  4457  01EB  3181  21BD  3181   	fcall	_TMR1_Initialize
  4458  01EE                     l1535:
  4459                           
  4460                           ;mcc_generated_files/mcc.c: 58:     TMR0_Initialize();
  4461  01EE  3182  2223  3181   	fcall	_TMR0_Initialize
  4462  01F1                     l1537:
  4463                           
  4464                           ;mcc_generated_files/mcc.c: 59:     CWG_Initialize();
  4465  01F1  3182  226D  3181   	fcall	_CWG_Initialize
  4466  01F4                     l207:
  4467  01F4  0008               	return
  4468  01F5                     __end_of_SYSTEM_Initialize:
  4469                           
  4470                           	psect	text9
  4471  029A                     __ptext9:	
  4472 ;; *************** function _TMR2_Initialize *****************
  4473 ;; Defined at:
  4474 ;;		line 62 in file "mcc_generated_files/tmr2.c"
  4475 ;; Parameters:    Size  Location     Type
  4476 ;;		None
  4477 ;; Auto vars:     Size  Location     Type
  4478 ;;		None
  4479 ;; Return value:  Size  Location     Type
  4480 ;;                  1    wreg      void 
  4481 ;; Registers used:
  4482 ;;		wreg, status,2
  4483 ;; Tracked objects:
  4484 ;;		On entry : 0/0
  4485 ;;		On exit  : 0/0
  4486 ;;		Unchanged: 0/0
  4487 ;; Data sizes:     COMMON   BANK0   BANK1   BANK2   BANK3   BANK4   BANK5   BANK6   BANK7   BANK8   BANK9  BANK10  BANK1
      +1  BANK12
  4488 ;;      Params:         0       0       0       0       0       0       0       0       0       0       0       0       
      +0       0
  4489 ;;      Locals:         0       0       0       0       0       0       0       0       0       0       0       0       
      +0       0
  4490 ;;      Temps:          0       0       0       0       0       0       0       0       0       0       0       0       
      +0       0
  4491 ;;      Totals:         0       0       0       0       0       0       0       0       0       0       0       0       
      +0       0
  4492 ;;Total ram usage:        0 bytes
  4493 ;; Hardware stack levels used: 1
  4494 ;; Hardware stack levels required when called: 4
  4495 ;; This function calls:
  4496 ;;		Nothing
  4497 ;; This function is called by:
  4498 ;;		_SYSTEM_Initialize
  4499 ;; This function uses a non-reentrant model
  4500 ;;
  4501                           
  4502                           
  4503                           ;psect for function _TMR2_Initialize
  4504  029A                     _TMR2_Initialize:
  4505  029A                     l1373:	
  4506                           ;incstack = 0
  4507                           ; Regs used in _TMR2_Initialize: [wreg+status,2]
  4508                           
  4509                           
  4510                           ;mcc_generated_files/tmr2.c: 67:     T2CLKCON = 0x01;
  4511  029A  3001               	movlw	1
  4512  029B  0145               	movlb	5	; select bank5
  4513  029C  0090               	movwf	16	;volatile
  4514  029D                     l1375:
  4515                           
  4516                           ;mcc_generated_files/tmr2.c: 70:     T2HLT = 0x00;
  4517  029D  018F               	clrf	15	;volatile
  4518  029E                     l1377:
  4519                           
  4520                           ;mcc_generated_files/tmr2.c: 73:     T2RST = 0x00;
  4521  029E  0191               	clrf	17	;volatile
  4522                           
  4523                           ;mcc_generated_files/tmr2.c: 76:     T2PR = 0x3E;
  4524  029F  303E               	movlw	62
  4525  02A0  008D               	movwf	13	;volatile
  4526  02A1                     l1379:
  4527                           
  4528                           ;mcc_generated_files/tmr2.c: 79:     T2TMR = 0x00;
  4529  02A1  018C               	clrf	12	;volatile
  4530  02A2                     l1381:
  4531                           
  4532                           ;mcc_generated_files/tmr2.c: 82:     PIR4bits.TMR2IF = 0;
  4533  02A2  014E               	movlb	14	; select bank14
  4534  02A3  1090               	bcf	16,1	;volatile
  4535  02A4                     l1383:
  4536                           
  4537                           ;mcc_generated_files/tmr2.c: 85:     T2CON = 0xB0;
  4538  02A4  30B0               	movlw	176
  4539  02A5  0145               	movlb	5	; select bank5
  4540  02A6  008E               	movwf	14	;volatile
  4541  02A7                     l39:
  4542  02A7  0008               	return
  4543  02A8                     __end_of_TMR2_Initialize:
  4544                           
  4545                           	psect	text10
  4546  01BD                     __ptext10:	
  4547 ;; *************** function _TMR1_Initialize *****************
  4548 ;; Defined at:
  4549 ;;		line 64 in file "mcc_generated_files/tmr1.c"
  4550 ;; Parameters:    Size  Location     Type
  4551 ;;		None
  4552 ;; Auto vars:     Size  Location     Type
  4553 ;;		None
  4554 ;; Return value:  Size  Location     Type
  4555 ;;                  1    wreg      void 
  4556 ;; Registers used:
  4557 ;;		wreg, status,2, status,0, pclath, cstack
  4558 ;; Tracked objects:
  4559 ;;		On entry : 0/0
  4560 ;;		On exit  : 0/0
  4561 ;;		Unchanged: 0/0
  4562 ;; Data sizes:     COMMON   BANK0   BANK1   BANK2   BANK3   BANK4   BANK5   BANK6   BANK7   BANK8   BANK9  BANK10  BANK1
      +1  BANK12
  4563 ;;      Params:         0       0       0       0       0       0       0       0       0       0       0       0       
      +0       0
  4564 ;;      Locals:         0       0       0       0       0       0       0       0       0       0       0       0       
      +0       0
  4565 ;;      Temps:          0       0       0       0       0       0       0       0       0       0       0       0       
      +0       0
  4566 ;;      Totals:         0       0       0       0       0       0       0       0       0       0       0       0       
      +0       0
  4567 ;;Total ram usage:        0 bytes
  4568 ;; Hardware stack levels used: 1
  4569 ;; Hardware stack levels required when called: 5
  4570 ;; This function calls:
  4571 ;;		_TMR1_SetInterruptHandler
  4572 ;; This function is called by:
  4573 ;;		_SYSTEM_Initialize
  4574 ;; This function uses a non-reentrant model
  4575 ;;
  4576                           
  4577                           
  4578                           ;psect for function _TMR1_Initialize
  4579  01BD                     _TMR1_Initialize:
  4580  01BD                     l1447:	
  4581                           ;incstack = 0
  4582                           ; Regs used in _TMR1_Initialize: [wreg+status,2+status,0+pclath+cstack]
  4583                           
  4584                           
  4585                           ;mcc_generated_files/tmr1.c: 69:     T1GCON = 0x00;
  4586  01BD  0144               	movlb	4	; select bank4
  4587  01BE  018F               	clrf	15	;volatile
  4588                           
  4589                           ;mcc_generated_files/tmr1.c: 72:     T1GATE = 0x00;
  4590  01BF  0190               	clrf	16	;volatile
  4591  01C0                     l1449:
  4592                           
  4593                           ;mcc_generated_files/tmr1.c: 75:     T1CLK = 0x01;
  4594  01C0  3001               	movlw	1
  4595  01C1  0091               	movwf	17	;volatile
  4596  01C2                     l1451:
  4597                           
  4598                           ;mcc_generated_files/tmr1.c: 78:     TMR1H = 0x3C;
  4599  01C2  303C               	movlw	60
  4600  01C3  008D               	movwf	13	;volatile
  4601  01C4                     l1453:
  4602                           
  4603                           ;mcc_generated_files/tmr1.c: 81:     TMR1L = 0xB0;
  4604  01C4  30B0               	movlw	176
  4605  01C5  008C               	movwf	12	;volatile
  4606  01C6                     l1455:
  4607                           
  4608                           ;mcc_generated_files/tmr1.c: 84:     PIR4bits.TMR1IF = 0;
  4609  01C6  014E               	movlb	14	; select bank14
  4610  01C7  1010               	bcf	16,0	;volatile
  4611  01C8                     l1457:
  4612                           
  4613                           ;mcc_generated_files/tmr1.c: 87:     timer1ReloadVal=(uint16_t)((TMR1H << 8) | TMR1L);
  4614  01C8  0144               	movlb	4	; select bank4
  4615  01C9  080D               	movf	13,w	;volatile
  4616  01CA  0140               	movlb	0	; select bank0
  4617  01CB  00D8               	movwf	_timer1ReloadVal+1	;volatile
  4618  01CC  0144               	movlb	4	; select bank4
  4619  01CD  080C               	movf	12,w	;volatile
  4620  01CE  0140               	movlb	0	; select bank0
  4621  01CF  00D7               	movwf	_timer1ReloadVal	;volatile
  4622  01D0                     l1459:
  4623                           
  4624                           ;mcc_generated_files/tmr1.c: 90:     PIE4bits.TMR1IE = 1;
  4625  01D0  014E               	movlb	14	; select bank14
  4626  01D1  141A               	bsf	26,0	;volatile
  4627  01D2                     l1461:
  4628                           
  4629                           ;mcc_generated_files/tmr1.c: 93:     TMR1_SetInterruptHandler(TMR1_DefaultInterruptHandl
      +                          er);
  4630  01D2  30FD               	movlw	low _TMR1_DefaultInterruptHandler
  4631  01D3  00F2               	movwf	TMR1_SetInterruptHandler@InterruptHandler
  4632  01D4  3002               	movlw	high _TMR1_DefaultInterruptHandler
  4633  01D5  00F3               	movwf	TMR1_SetInterruptHandler@InterruptHandler+1
  4634  01D6  3182  22E0  3181   	fcall	_TMR1_SetInterruptHandler
  4635  01D9                     l1463:
  4636                           
  4637                           ;mcc_generated_files/tmr1.c: 96:     T1CON = 0x00;
  4638  01D9  0144               	movlb	4	; select bank4
  4639  01DA  018E               	clrf	14	;volatile
  4640  01DB                     l302:
  4641  01DB  0008               	return
  4642  01DC                     __end_of_TMR1_Initialize:
  4643                           
  4644                           	psect	text11
  4645  02E0                     __ptext11:	
  4646 ;; *************** function _TMR1_SetInterruptHandler *****************
  4647 ;; Defined at:
  4648 ;;		line 178 in file "mcc_generated_files/tmr1.c"
  4649 ;; Parameters:    Size  Location     Type
  4650 ;;  InterruptHan    2    2[COMMON] PTR FTN()void 
  4651 ;;		 -> TMR1_DefaultInterruptHandler(1), 
  4652 ;; Auto vars:     Size  Location     Type
  4653 ;;		None
  4654 ;; Return value:  Size  Location     Type
  4655 ;;                  1    wreg      void 
  4656 ;; Registers used:
  4657 ;;		wreg
  4658 ;; Tracked objects:
  4659 ;;		On entry : 0/0
  4660 ;;		On exit  : 0/0
  4661 ;;		Unchanged: 0/0
  4662 ;; Data sizes:     COMMON   BANK0   BANK1   BANK2   BANK3   BANK4   BANK5   BANK6   BANK7   BANK8   BANK9  BANK10  BANK1
      +1  BANK12
  4663 ;;      Params:         2       0       0       0       0       0       0       0       0       0       0       0       
      +0       0
  4664 ;;      Locals:         0       0       0       0       0       0       0       0       0       0       0       0       
      +0       0
  4665 ;;      Temps:          0       0       0       0       0       0       0       0       0       0       0       0       
      +0       0
  4666 ;;      Totals:         2       0       0       0       0       0       0       0       0       0       0       0       
      +0       0
  4667 ;;Total ram usage:        2 bytes
  4668 ;; Hardware stack levels used: 1
  4669 ;; Hardware stack levels required when called: 4
  4670 ;; This function calls:
  4671 ;;		Nothing
  4672 ;; This function is called by:
  4673 ;;		_TMR1_Initialize
  4674 ;; This function uses a non-reentrant model
  4675 ;;
  4676                           
  4677                           
  4678                           ;psect for function _TMR1_SetInterruptHandler
  4679  02E0                     _TMR1_SetInterruptHandler:
  4680  02E0                     l1361:	
  4681                           ;incstack = 0
  4682                           ; Regs used in _TMR1_SetInterruptHandler: [wreg]
  4683                           
  4684                           
  4685                           ;mcc_generated_files/tmr1.c: 179:     TMR1_InterruptHandler = InterruptHandler;
  4686  02E0  0873               	movf	TMR1_SetInterruptHandler@InterruptHandler+1,w
  4687  02E1  0140               	movlb	0	; select bank0
  4688  02E2  00D6               	movwf	_TMR1_InterruptHandler+1
  4689  02E3  0872               	movf	TMR1_SetInterruptHandler@InterruptHandler,w
  4690  02E4  00D5               	movwf	_TMR1_InterruptHandler
  4691  02E5                     l332:
  4692  02E5  0008               	return
  4693  02E6                     __end_of_TMR1_SetInterruptHandler:
  4694                           
  4695                           	psect	text12
  4696  0223                     __ptext12:	
  4697 ;; *************** function _TMR0_Initialize *****************
  4698 ;; Defined at:
  4699 ;;		line 61 in file "mcc_generated_files/tmr0.c"
  4700 ;; Parameters:    Size  Location     Type
  4701 ;;		None
  4702 ;; Auto vars:     Size  Location     Type
  4703 ;;		None
  4704 ;; Return value:  Size  Location     Type
  4705 ;;                  1    wreg      void 
  4706 ;; Registers used:
  4707 ;;		wreg, status,2, status,0, pclath, cstack
  4708 ;; Tracked objects:
  4709 ;;		On entry : 0/0
  4710 ;;		On exit  : 0/0
  4711 ;;		Unchanged: 0/0
  4712 ;; Data sizes:     COMMON   BANK0   BANK1   BANK2   BANK3   BANK4   BANK5   BANK6   BANK7   BANK8   BANK9  BANK10  BANK1
      +1  BANK12
  4713 ;;      Params:         0       0       0       0       0       0       0       0       0       0       0       0       
      +0       0
  4714 ;;      Locals:         0       0       0       0       0       0       0       0       0       0       0       0       
      +0       0
  4715 ;;      Temps:          0       0       0       0       0       0       0       0       0       0       0       0       
      +0       0
  4716 ;;      Totals:         0       0       0       0       0       0       0       0       0       0       0       0       
      +0       0
  4717 ;;Total ram usage:        0 bytes
  4718 ;; Hardware stack levels used: 1
  4719 ;; Hardware stack levels required when called: 5
  4720 ;; This function calls:
  4721 ;;		_TMR0_SetInterruptHandler
  4722 ;; This function is called by:
  4723 ;;		_SYSTEM_Initialize
  4724 ;; This function uses a non-reentrant model
  4725 ;;
  4726                           
  4727                           
  4728                           ;psect for function _TMR0_Initialize
  4729  0223                     _TMR0_Initialize:
  4730  0223                     l1465:	
  4731                           ;incstack = 0
  4732                           ; Regs used in _TMR0_Initialize: [wreg+status,2+status,0+pclath+cstack]
  4733                           
  4734                           
  4735                           ;mcc_generated_files/tmr0.c: 66:     T0CON1 = 0x40;
  4736  0223  3040               	movlw	64
  4737  0224  014B               	movlb	11	; select bank11
  4738  0225  009F               	movwf	31	;volatile
  4739                           
  4740                           ;mcc_generated_files/tmr0.c: 69:     TMR0H = 0xF9;
  4741  0226  30F9               	movlw	249
  4742  0227  009D               	movwf	29	;volatile
  4743  0228                     l1467:
  4744                           
  4745                           ;mcc_generated_files/tmr0.c: 72:     TMR0L = 0x00;
  4746  0228  019C               	clrf	28	;volatile
  4747  0229                     l1469:
  4748                           
  4749                           ;mcc_generated_files/tmr0.c: 75:     PIR0bits.TMR0IF = 0;
  4750  0229  014E               	movlb	14	; select bank14
  4751  022A  128C               	bcf	12,5	;volatile
  4752  022B                     l1471:
  4753                           
  4754                           ;mcc_generated_files/tmr0.c: 78:     PIE0bits.TMR0IE = 1;
  4755  022B  1696               	bsf	22,5	;volatile
  4756  022C                     l1473:
  4757                           
  4758                           ;mcc_generated_files/tmr0.c: 81:     TMR0_SetInterruptHandler(TMR0_DefaultInterruptHandl
      +                          er);
  4759  022C  30FE               	movlw	low _TMR0_DefaultInterruptHandler
  4760  022D  00F2               	movwf	TMR0_SetInterruptHandler@InterruptHandler
  4761  022E  3002               	movlw	high _TMR0_DefaultInterruptHandler
  4762  022F  00F3               	movwf	TMR0_SetInterruptHandler@InterruptHandler+1
  4763  0230  3182  22E6  3182   	fcall	_TMR0_SetInterruptHandler
  4764  0233                     l1475:
  4765                           
  4766                           ;mcc_generated_files/tmr0.c: 84:     T0CON0 = 0x8F;
  4767  0233  308F               	movlw	143
  4768  0234  014B               	movlb	11	; select bank11
  4769  0235  009E               	movwf	30	;volatile
  4770  0236                     l438:
  4771  0236  0008               	return
  4772  0237                     __end_of_TMR0_Initialize:
  4773                           
  4774                           	psect	text13
  4775  02E6                     __ptext13:	
  4776 ;; *************** function _TMR0_SetInterruptHandler *****************
  4777 ;; Defined at:
  4778 ;;		line 134 in file "mcc_generated_files/tmr0.c"
  4779 ;; Parameters:    Size  Location     Type
  4780 ;;  InterruptHan    2    2[COMMON] PTR FTN()void 
  4781 ;;		 -> TMR0_DefaultInterruptHandler(1), 
  4782 ;; Auto vars:     Size  Location     Type
  4783 ;;		None
  4784 ;; Return value:  Size  Location     Type
  4785 ;;                  1    wreg      void 
  4786 ;; Registers used:
  4787 ;;		wreg
  4788 ;; Tracked objects:
  4789 ;;		On entry : 0/0
  4790 ;;		On exit  : 0/0
  4791 ;;		Unchanged: 0/0
  4792 ;; Data sizes:     COMMON   BANK0   BANK1   BANK2   BANK3   BANK4   BANK5   BANK6   BANK7   BANK8   BANK9  BANK10  BANK1
      +1  BANK12
  4793 ;;      Params:         2       0       0       0       0       0       0       0       0       0       0       0       
      +0       0
  4794 ;;      Locals:         0       0       0       0       0       0       0       0       0       0       0       0       
      +0       0
  4795 ;;      Temps:          0       0       0       0       0       0       0       0       0       0       0       0       
      +0       0
  4796 ;;      Totals:         2       0       0       0       0       0       0       0       0       0       0       0       
      +0       0
  4797 ;;Total ram usage:        2 bytes
  4798 ;; Hardware stack levels used: 1
  4799 ;; Hardware stack levels required when called: 4
  4800 ;; This function calls:
  4801 ;;		Nothing
  4802 ;; This function is called by:
  4803 ;;		_TMR0_Initialize
  4804 ;; This function uses a non-reentrant model
  4805 ;;
  4806                           
  4807                           
  4808                           ;psect for function _TMR0_SetInterruptHandler
  4809  02E6                     _TMR0_SetInterruptHandler:
  4810  02E6                     l1369:	
  4811                           ;incstack = 0
  4812                           ; Regs used in _TMR0_SetInterruptHandler: [wreg]
  4813                           
  4814                           
  4815                           ;mcc_generated_files/tmr0.c: 135:     TMR0_InterruptHandler = InterruptHandler;
  4816  02E6  0873               	movf	TMR0_SetInterruptHandler@InterruptHandler+1,w
  4817  02E7  0140               	movlb	0	; select bank0
  4818  02E8  00D4               	movwf	_TMR0_InterruptHandler+1
  4819  02E9  0872               	movf	TMR0_SetInterruptHandler@InterruptHandler,w
  4820  02EA  00D3               	movwf	_TMR0_InterruptHandler
  4821  02EB                     l460:
  4822  02EB  0008               	return
  4823  02EC                     __end_of_TMR0_SetInterruptHandler:
  4824                           
  4825                           	psect	text14
  4826  02D0                     __ptext14:	
  4827 ;; *************** function _PWM3_Initialize *****************
  4828 ;; Defined at:
  4829 ;;		line 58 in file "mcc_generated_files/pwm3.c"
  4830 ;; Parameters:    Size  Location     Type
  4831 ;;		None
  4832 ;; Auto vars:     Size  Location     Type
  4833 ;;		None
  4834 ;; Return value:  Size  Location     Type
  4835 ;;                  1    wreg      void 
  4836 ;; Registers used:
  4837 ;;		wreg
  4838 ;; Tracked objects:
  4839 ;;		On entry : 0/0
  4840 ;;		On exit  : 0/0
  4841 ;;		Unchanged: 0/0
  4842 ;; Data sizes:     COMMON   BANK0   BANK1   BANK2   BANK3   BANK4   BANK5   BANK6   BANK7   BANK8   BANK9  BANK10  BANK1
      +1  BANK12
  4843 ;;      Params:         0       0       0       0       0       0       0       0       0       0       0       0       
      +0       0
  4844 ;;      Locals:         0       0       0       0       0       0       0       0       0       0       0       0       
      +0       0
  4845 ;;      Temps:          0       0       0       0       0       0       0       0       0       0       0       0       
      +0       0
  4846 ;;      Totals:         0       0       0       0       0       0       0       0       0       0       0       0       
      +0       0
  4847 ;;Total ram usage:        0 bytes
  4848 ;; Hardware stack levels used: 1
  4849 ;; Hardware stack levels required when called: 4
  4850 ;; This function calls:
  4851 ;;		Nothing
  4852 ;; This function is called by:
  4853 ;;		_SYSTEM_Initialize
  4854 ;; This function uses a non-reentrant model
  4855 ;;
  4856                           
  4857                           
  4858                           ;psect for function _PWM3_Initialize
  4859  02D0                     _PWM3_Initialize:
  4860  02D0                     l1371:	
  4861                           ;incstack = 0
  4862                           ; Regs used in _PWM3_Initialize: [wreg]
  4863                           
  4864                           
  4865                           ;mcc_generated_files/pwm3.c: 62:     PWM3CON = 0x80;
  4866  02D0  3080               	movlw	128
  4867  02D1  0146               	movlb	6	; select bank6
  4868  02D2  0096               	movwf	22	;volatile
  4869                           
  4870                           ;mcc_generated_files/pwm3.c: 65:     PWM3DCH = 0x1F;
  4871  02D3  301F               	movlw	31
  4872  02D4  0095               	movwf	21	;volatile
  4873                           
  4874                           ;mcc_generated_files/pwm3.c: 68:     PWM3DCL = 0x40;
  4875  02D5  3040               	movlw	64
  4876  02D6  0094               	movwf	20	;volatile
  4877  02D7                     l9:
  4878  02D7  0008               	return
  4879  02D8                     __end_of_PWM3_Initialize:
  4880                           
  4881                           	psect	text15
  4882  02D8                     __ptext15:	
  4883 ;; *************** function _PMD_Initialize *****************
  4884 ;; Defined at:
  4885 ;;		line 78 in file "mcc_generated_files/mcc.c"
  4886 ;; Parameters:    Size  Location     Type
  4887 ;;		None
  4888 ;; Auto vars:     Size  Location     Type
  4889 ;;		None
  4890 ;; Return value:  Size  Location     Type
  4891 ;;                  1    wreg      void 
  4892 ;; Registers used:
  4893 ;;		status,2
  4894 ;; Tracked objects:
  4895 ;;		On entry : 0/0
  4896 ;;		On exit  : 0/0
  4897 ;;		Unchanged: 0/0
  4898 ;; Data sizes:     COMMON   BANK0   BANK1   BANK2   BANK3   BANK4   BANK5   BANK6   BANK7   BANK8   BANK9  BANK10  BANK1
      +1  BANK12
  4899 ;;      Params:         0       0       0       0       0       0       0       0       0       0       0       0       
      +0       0
  4900 ;;      Locals:         0       0       0       0       0       0       0       0       0       0       0       0       
      +0       0
  4901 ;;      Temps:          0       0       0       0       0       0       0       0       0       0       0       0       
      +0       0
  4902 ;;      Totals:         0       0       0       0       0       0       0       0       0       0       0       0       
      +0       0
  4903 ;;Total ram usage:        0 bytes
  4904 ;; Hardware stack levels used: 1
  4905 ;; Hardware stack levels required when called: 4
  4906 ;; This function calls:
  4907 ;;		Nothing
  4908 ;; This function is called by:
  4909 ;;		_SYSTEM_Initialize
  4910 ;; This function uses a non-reentrant model
  4911 ;;
  4912                           
  4913                           
  4914                           ;psect for function _PMD_Initialize
  4915  02D8                     _PMD_Initialize:
  4916  02D8                     l1435:	
  4917                           ;incstack = 0
  4918                           ; Regs used in _PMD_Initialize: [status,2]
  4919                           
  4920                           
  4921                           ;mcc_generated_files/mcc.c: 81:     PMD0 = 0x00;
  4922  02D8  014F               	movlb	15	; select bank15
  4923  02D9  0196               	clrf	22	;volatile
  4924                           
  4925                           ;mcc_generated_files/mcc.c: 83:     PMD1 = 0x00;
  4926  02DA  0197               	clrf	23	;volatile
  4927                           
  4928                           ;mcc_generated_files/mcc.c: 85:     PMD2 = 0x00;
  4929  02DB  0198               	clrf	24	;volatile
  4930                           
  4931                           ;mcc_generated_files/mcc.c: 87:     PMD3 = 0x00;
  4932  02DC  0199               	clrf	25	;volatile
  4933                           
  4934                           ;mcc_generated_files/mcc.c: 89:     PMD4 = 0x00;
  4935  02DD  019A               	clrf	26	;volatile
  4936                           
  4937                           ;mcc_generated_files/mcc.c: 91:     PMD5 = 0x00;
  4938  02DE  019B               	clrf	27	;volatile
  4939  02DF                     l213:
  4940  02DF  0008               	return
  4941  02E0                     __end_of_PMD_Initialize:
  4942                           
  4943                           	psect	text16
  4944  018F                     __ptext16:	
  4945 ;; *************** function _PIN_MANAGER_Initialize *****************
  4946 ;; Defined at:
  4947 ;;		line 55 in file "mcc_generated_files/pin_manager.c"
  4948 ;; Parameters:    Size  Location     Type
  4949 ;;		None
  4950 ;; Auto vars:     Size  Location     Type
  4951 ;;		None
  4952 ;; Return value:  Size  Location     Type
  4953 ;;                  1    wreg      void 
  4954 ;; Registers used:
  4955 ;;		wreg, status,2, status,0, pclath, cstack
  4956 ;; Tracked objects:
  4957 ;;		On entry : 0/0
  4958 ;;		On exit  : 0/0
  4959 ;;		Unchanged: 0/0
  4960 ;; Data sizes:     COMMON   BANK0   BANK1   BANK2   BANK3   BANK4   BANK5   BANK6   BANK7   BANK8   BANK9  BANK10  BANK1
      +1  BANK12
  4961 ;;      Params:         0       0       0       0       0       0       0       0       0       0       0       0       
      +0       0
  4962 ;;      Locals:         0       0       0       0       0       0       0       0       0       0       0       0       
      +0       0
  4963 ;;      Temps:          0       0       0       0       0       0       0       0       0       0       0       0       
      +0       0
  4964 ;;      Totals:         0       0       0       0       0       0       0       0       0       0       0       0       
      +0       0
  4965 ;;Total ram usage:        0 bytes
  4966 ;; Hardware stack levels used: 1
  4967 ;; Hardware stack levels required when called: 5
  4968 ;; This function calls:
  4969 ;;		_IOCCF4_SetInterruptHandler
  4970 ;; This function is called by:
  4971 ;;		_SYSTEM_Initialize
  4972 ;; This function uses a non-reentrant model
  4973 ;;
  4974                           
  4975                           
  4976                           ;psect for function _PIN_MANAGER_Initialize
  4977  018F                     _PIN_MANAGER_Initialize:
  4978  018F                     l1385:	
  4979                           ;incstack = 0
  4980                           ; Regs used in _PIN_MANAGER_Initialize: [wreg+status,2+status,0+pclath+cstack]
  4981                           
  4982                           
  4983                           ;mcc_generated_files/pin_manager.c: 60:     LATA = 0x00;
  4984  018F  0140               	movlb	0	; select bank0
  4985  0190  0198               	clrf	24	;volatile
  4986  0191                     l1387:
  4987                           
  4988                           ;mcc_generated_files/pin_manager.c: 61:     LATC = 0x08;
  4989  0191  3008               	movlw	8
  4990  0192  009A               	movwf	26	;volatile
  4991  0193                     l1389:
  4992                           
  4993                           ;mcc_generated_files/pin_manager.c: 66:     TRISA = 0x37;
  4994  0193  3037               	movlw	55
  4995  0194  0092               	movwf	18	;volatile
  4996  0195                     l1391:
  4997                           
  4998                           ;mcc_generated_files/pin_manager.c: 67:     TRISC = 0x31;
  4999  0195  3031               	movlw	49
  5000  0196  0094               	movwf	20	;volatile
  5001  0197                     l1393:
  5002                           
  5003                           ;mcc_generated_files/pin_manager.c: 72:     ANSELC = 0x27;
  5004  0197  3027               	movlw	39
  5005  0198  017E               	movlb	62	; select bank62
  5006  0199  00CE               	movwf	78	;volatile
  5007  019A                     l1395:
  5008                           
  5009                           ;mcc_generated_files/pin_manager.c: 73:     ANSELA = 0x1B;
  5010  019A  301B               	movlw	27
  5011  019B  00B8               	movwf	56	;volatile
  5012  019C                     l1397:
  5013                           
  5014                           ;mcc_generated_files/pin_manager.c: 78:     WPUA = 0x00;
  5015  019C  01B9               	clrf	57	;volatile
  5016  019D                     l1399:
  5017                           
  5018                           ;mcc_generated_files/pin_manager.c: 79:     WPUC = 0x00;
  5019  019D  01CF               	clrf	79	;volatile
  5020  019E                     l1401:
  5021                           
  5022                           ;mcc_generated_files/pin_manager.c: 84:     ODCONA = 0x00;
  5023  019E  01BA               	clrf	58	;volatile
  5024  019F                     l1403:
  5025                           
  5026                           ;mcc_generated_files/pin_manager.c: 85:     ODCONC = 0x00;
  5027  019F  01D0               	clrf	80	;volatile
  5028  01A0                     l1405:
  5029                           
  5030                           ;mcc_generated_files/pin_manager.c: 90:     SLRCONA = 0x1F;
  5031  01A0  301F               	movlw	31
  5032  01A1  00BB               	movwf	59	;volatile
  5033  01A2                     l1407:
  5034                           
  5035                           ;mcc_generated_files/pin_manager.c: 91:     SLRCONC = 0x3F;
  5036  01A2  303F               	movlw	63
  5037  01A3  00D1               	movwf	81	;volatile
  5038  01A4                     l1409:
  5039                           
  5040                           ;mcc_generated_files/pin_manager.c: 96:     INLVLA = 0x3F;
  5041  01A4  303F               	movlw	63
  5042  01A5  00BC               	movwf	60	;volatile
  5043  01A6                     l1411:
  5044                           
  5045                           ;mcc_generated_files/pin_manager.c: 97:     INLVLC = 0x3F;
  5046  01A6  303F               	movlw	63
  5047  01A7  00D2               	movwf	82	;volatile
  5048  01A8                     l1413:
  5049                           
  5050                           ;mcc_generated_files/pin_manager.c: 104:     IOCCFbits.IOCCF4 = 0;
  5051  01A8  1255               	bcf	85,4	;volatile
  5052  01A9                     l1415:
  5053                           
  5054                           ;mcc_generated_files/pin_manager.c: 106:     IOCCNbits.IOCCN4 = 0;
  5055  01A9  1254               	bcf	84,4	;volatile
  5056  01AA                     l1417:
  5057                           
  5058                           ;mcc_generated_files/pin_manager.c: 108:     IOCCPbits.IOCCP4 = 1;
  5059  01AA  1653               	bsf	83,4	;volatile
  5060  01AB                     l1419:
  5061                           
  5062                           ;mcc_generated_files/pin_manager.c: 113:     IOCCF4_SetInterruptHandler(IOCCF4_DefaultIn
      +                          terruptHandler);
  5063  01AB  3037               	movlw	low _IOCCF4_DefaultInterruptHandler
  5064  01AC  00F2               	movwf	IOCCF4_SetInterruptHandler@InterruptHandler
  5065  01AD  3002               	movlw	high _IOCCF4_DefaultInterruptHandler
  5066  01AE  00F3               	movwf	IOCCF4_SetInterruptHandler@InterruptHandler+1
  5067  01AF  3182  22EC  3181   	fcall	_IOCCF4_SetInterruptHandler
  5068  01B2                     l1421:
  5069                           
  5070                           ;mcc_generated_files/pin_manager.c: 116:     PIE0bits.IOCIE = 1;
  5071  01B2  014E               	movlb	14	; select bank14
  5072  01B3  1616               	bsf	22,4	;volatile
  5073  01B4                     l1423:
  5074                           
  5075                           ;mcc_generated_files/pin_manager.c: 119:     CWG1PPS = 0x02;
  5076  01B4  3002               	movlw	2
  5077  01B5  017D               	movlb	61	; select bank61
  5078  01B6  00B1               	movwf	49	;volatile
  5079  01B7                     l1425:
  5080                           
  5081                           ;mcc_generated_files/pin_manager.c: 120:     RC3PPS = 0x05;
  5082  01B7  3005               	movlw	5
  5083  01B8  017E               	movlb	62	; select bank62
  5084  01B9  00A3               	movwf	35	;volatile
  5085  01BA                     l1427:
  5086                           
  5087                           ;mcc_generated_files/pin_manager.c: 121:     RC2PPS = 0x06;
  5088  01BA  3006               	movlw	6
  5089  01BB  00A2               	movwf	34	;volatile
  5090  01BC                     l148:
  5091  01BC  0008               	return
  5092  01BD                     __end_of_PIN_MANAGER_Initialize:
  5093                           
  5094                           	psect	text17
  5095  02EC                     __ptext17:	
  5096 ;; *************** function _IOCCF4_SetInterruptHandler *****************
  5097 ;; Defined at:
  5098 ;;		line 151 in file "mcc_generated_files/pin_manager.c"
  5099 ;; Parameters:    Size  Location     Type
  5100 ;;  InterruptHan    2    2[COMMON] PTR FTN()void 
  5101 ;;		 -> IOCCF4_DefaultInterruptHandler(1), 
  5102 ;; Auto vars:     Size  Location     Type
  5103 ;;		None
  5104 ;; Return value:  Size  Location     Type
  5105 ;;                  1    wreg      void 
  5106 ;; Registers used:
  5107 ;;		wreg
  5108 ;; Tracked objects:
  5109 ;;		On entry : 0/0
  5110 ;;		On exit  : 0/0
  5111 ;;		Unchanged: 0/0
  5112 ;; Data sizes:     COMMON   BANK0   BANK1   BANK2   BANK3   BANK4   BANK5   BANK6   BANK7   BANK8   BANK9  BANK10  BANK1
      +1  BANK12
  5113 ;;      Params:         2       0       0       0       0       0       0       0       0       0       0       0       
      +0       0
  5114 ;;      Locals:         0       0       0       0       0       0       0       0       0       0       0       0       
      +0       0
  5115 ;;      Temps:          0       0       0       0       0       0       0       0       0       0       0       0       
      +0       0
  5116 ;;      Totals:         2       0       0       0       0       0       0       0       0       0       0       0       
      +0       0
  5117 ;;Total ram usage:        2 bytes
  5118 ;; Hardware stack levels used: 1
  5119 ;; Hardware stack levels required when called: 4
  5120 ;; This function calls:
  5121 ;;		Nothing
  5122 ;; This function is called by:
  5123 ;;		_PIN_MANAGER_Initialize
  5124 ;; This function uses a non-reentrant model
  5125 ;;
  5126                           
  5127                           
  5128                           ;psect for function _IOCCF4_SetInterruptHandler
  5129  02EC                     _IOCCF4_SetInterruptHandler:
  5130  02EC                     l1353:	
  5131                           ;incstack = 0
  5132                           ; Regs used in _IOCCF4_SetInterruptHandler: [wreg]
  5133                           
  5134                           
  5135                           ;mcc_generated_files/pin_manager.c: 152:     IOCCF4_InterruptHandler = InterruptHandler;
  5136  02EC  0873               	movf	IOCCF4_SetInterruptHandler@InterruptHandler+1,w
  5137  02ED  0140               	movlb	0	; select bank0
  5138  02EE  00DA               	movwf	_IOCCF4_InterruptHandler+1
  5139  02EF  0872               	movf	IOCCF4_SetInterruptHandler@InterruptHandler,w
  5140  02F0  00D9               	movwf	_IOCCF4_InterruptHandler
  5141  02F1                     l159:
  5142  02F1  0008               	return
  5143  02F2                     __end_of_IOCCF4_SetInterruptHandler:
  5144                           
  5145                           	psect	text18
  5146  02B4                     __ptext18:	
  5147 ;; *************** function _OSCILLATOR_Initialize *****************
  5148 ;; Defined at:
  5149 ;;		line 62 in file "mcc_generated_files/mcc.c"
  5150 ;; Parameters:    Size  Location     Type
  5151 ;;		None
  5152 ;; Auto vars:     Size  Location     Type
  5153 ;;		None
  5154 ;; Return value:  Size  Location     Type
  5155 ;;                  1    wreg      void 
  5156 ;; Registers used:
  5157 ;;		wreg, status,2
  5158 ;; Tracked objects:
  5159 ;;		On entry : 0/0
  5160 ;;		On exit  : 0/0
  5161 ;;		Unchanged: 0/0
  5162 ;; Data sizes:     COMMON   BANK0   BANK1   BANK2   BANK3   BANK4   BANK5   BANK6   BANK7   BANK8   BANK9  BANK10  BANK1
      +1  BANK12
  5163 ;;      Params:         0       0       0       0       0       0       0       0       0       0       0       0       
      +0       0
  5164 ;;      Locals:         0       0       0       0       0       0       0       0       0       0       0       0       
      +0       0
  5165 ;;      Temps:          0       0       0       0       0       0       0       0       0       0       0       0       
      +0       0
  5166 ;;      Totals:         0       0       0       0       0       0       0       0       0       0       0       0       
      +0       0
  5167 ;;Total ram usage:        0 bytes
  5168 ;; Hardware stack levels used: 1
  5169 ;; Hardware stack levels required when called: 4
  5170 ;; This function calls:
  5171 ;;		Nothing
  5172 ;; This function is called by:
  5173 ;;		_SYSTEM_Initialize
  5174 ;; This function uses a non-reentrant model
  5175 ;;
  5176                           
  5177                           
  5178                           ;psect for function _OSCILLATOR_Initialize
  5179  02B4                     _OSCILLATOR_Initialize:
  5180  02B4                     l1437:	
  5181                           ;incstack = 0
  5182                           ; Regs used in _OSCILLATOR_Initialize: [wreg+status,2]
  5183                           
  5184                           
  5185                           ;mcc_generated_files/mcc.c: 65:     OSCCON1 = 0x62;
  5186  02B4  3062               	movlw	98
  5187  02B5  0151               	movlb	17	; select bank17
  5188  02B6  008D               	movwf	13	;volatile
  5189  02B7                     l1439:
  5190                           
  5191                           ;mcc_generated_files/mcc.c: 67:     OSCCON3 = 0x00;
  5192  02B7  018F               	clrf	15	;volatile
  5193  02B8                     l1441:
  5194                           
  5195                           ;mcc_generated_files/mcc.c: 69:     OSCEN = 0x00;
  5196  02B8  0191               	clrf	17	;volatile
  5197                           
  5198                           ;mcc_generated_files/mcc.c: 71:     OSCFRQ = 0x02;
  5199  02B9  3002               	movlw	2
  5200  02BA  0093               	movwf	19	;volatile
  5201  02BB                     l1443:
  5202                           
  5203                           ;mcc_generated_files/mcc.c: 73:     OSCSTAT = 0x00;
  5204  02BB  0190               	clrf	16	;volatile
  5205  02BC                     l1445:
  5206                           
  5207                           ;mcc_generated_files/mcc.c: 75:     OSCTUNE = 0x00;
  5208  02BC  0192               	clrf	18	;volatile
  5209  02BD                     l210:
  5210  02BD  0008               	return
  5211  02BE                     __end_of_OSCILLATOR_Initialize:
  5212                           
  5213                           	psect	text19
  5214  026D                     __ptext19:	
  5215 ;; *************** function _CWG_Initialize *****************
  5216 ;; Defined at:
  5217 ;;		line 58 in file "mcc_generated_files/cwg.c"
  5218 ;; Parameters:    Size  Location     Type
  5219 ;;		None
  5220 ;; Auto vars:     Size  Location     Type
  5221 ;;		None
  5222 ;; Return value:  Size  Location     Type
  5223 ;;                  1    wreg      void 
  5224 ;; Registers used:
  5225 ;;		wreg, status,2
  5226 ;; Tracked objects:
  5227 ;;		On entry : 0/0
  5228 ;;		On exit  : 0/0
  5229 ;;		Unchanged: 0/0
  5230 ;; Data sizes:     COMMON   BANK0   BANK1   BANK2   BANK3   BANK4   BANK5   BANK6   BANK7   BANK8   BANK9  BANK10  BANK1
      +1  BANK12
  5231 ;;      Params:         0       0       0       0       0       0       0       0       0       0       0       0       
      +0       0
  5232 ;;      Locals:         0       0       0       0       0       0       0       0       0       0       0       0       
      +0       0
  5233 ;;      Temps:          0       0       0       0       0       0       0       0       0       0       0       0       
      +0       0
  5234 ;;      Totals:         0       0       0       0       0       0       0       0       0       0       0       0       
      +0       0
  5235 ;;Total ram usage:        0 bytes
  5236 ;; Hardware stack levels used: 1
  5237 ;; Hardware stack levels required when called: 4
  5238 ;; This function calls:
  5239 ;;		Nothing
  5240 ;; This function is called by:
  5241 ;;		_SYSTEM_Initialize
  5242 ;; This function uses a non-reentrant model
  5243 ;;
  5244                           
  5245                           
  5246                           ;psect for function _CWG_Initialize
  5247  026D                     _CWG_Initialize:
  5248  026D                     l1477:	
  5249                           ;incstack = 0
  5250                           ; Regs used in _CWG_Initialize: [wreg+status,2]
  5251                           
  5252                           
  5253                           ;mcc_generated_files/cwg.c: 63:  CWG1CON1 = 0x02;
  5254  026D  3002               	movlw	2
  5255  026E  014C               	movlb	12	; select bank12
  5256  026F  0091               	movwf	17	;volatile
  5257  0270                     l1479:
  5258                           
  5259                           ;mcc_generated_files/cwg.c: 66:  CWG1DBR = 0x00;
  5260  0270  018E               	clrf	14	;volatile
  5261  0271                     l1481:
  5262                           
  5263                           ;mcc_generated_files/cwg.c: 69:  CWG1DBF = 0x00;
  5264  0271  018F               	clrf	15	;volatile
  5265                           
  5266                           ;mcc_generated_files/cwg.c: 72:  CWG1AS0 = 0x14;
  5267  0272  3014               	movlw	20
  5268  0273  0092               	movwf	18	;volatile
  5269  0274                     l1483:
  5270                           
  5271                           ;mcc_generated_files/cwg.c: 75:  CWG1AS1 = 0x00;
  5272  0274  0193               	clrf	19	;volatile
  5273  0275                     l1485:
  5274                           
  5275                           ;mcc_generated_files/cwg.c: 78:  CWG1STR = 0x00;
  5276  0275  0194               	clrf	20	;volatile
  5277  0276                     l1487:
  5278                           
  5279                           ;mcc_generated_files/cwg.c: 81:  CWG1CLKCON = 0x00;
  5280  0276  018C               	clrf	12	;volatile
  5281  0277                     l1489:
  5282                           
  5283                           ;mcc_generated_files/cwg.c: 84:  CWG1DAT = 0x03;
  5284  0277  3003               	movlw	3
  5285  0278  008D               	movwf	13	;volatile
  5286  0279                     l1491:
  5287                           
  5288                           ;mcc_generated_files/cwg.c: 87:  CWG1CON0 = 0x85;
  5289  0279  3085               	movlw	133
  5290  027A  0090               	movwf	16	;volatile
  5291  027B                     l236:
  5292  027B  0008               	return
  5293  027C                     __end_of_CWG_Initialize:
  5294                           
  5295                           	psect	intentry
  5296  0004                     __pintentry:	
  5297 ;; *************** function _INTERRUPT_InterruptManager *****************
  5298 ;; Defined at:
  5299 ;;		line 52 in file "mcc_generated_files/interrupt_manager.c"
  5300 ;; Parameters:    Size  Location     Type
  5301 ;;		None
  5302 ;; Auto vars:     Size  Location     Type
  5303 ;;		None
  5304 ;; Return value:  Size  Location     Type
  5305 ;;                  1    wreg      void 
  5306 ;; Registers used:
  5307 ;;		wreg, status,2, status,0, pclath, cstack
  5308 ;; Tracked objects:
  5309 ;;		On entry : 0/0
  5310 ;;		On exit  : 0/0
  5311 ;;		Unchanged: 0/0
  5312 ;; Data sizes:     COMMON   BANK0   BANK1   BANK2   BANK3   BANK4   BANK5   BANK6   BANK7   BANK8   BANK9  BANK10  BANK1
      +1  BANK12
  5313 ;;      Params:         0       0       0       0       0       0       0       0       0       0       0       0       
      +0       0
  5314 ;;      Locals:         0       0       0       0       0       0       0       0       0       0       0       0       
      +0       0
  5315 ;;      Temps:          0       0       0       0       0       0       0       0       0       0       0       0       
      +0       0
  5316 ;;      Totals:         0       0       0       0       0       0       0       0       0       0       0       0       
      +0       0
  5317 ;;Total ram usage:        0 bytes
  5318 ;; Hardware stack levels used: 1
  5319 ;; Hardware stack levels required when called: 3
  5320 ;; This function calls:
  5321 ;;		_PIN_MANAGER_IOC
  5322 ;;		_TMR0_ISR
  5323 ;;		_TMR1_ISR
  5324 ;; This function is called by:
  5325 ;;		Interrupt level 1
  5326 ;; This function uses a non-reentrant model
  5327 ;;
  5328                           
  5329  0004                     _INTERRUPT_InterruptManager:
  5330                           
  5331                           ;incstack = 0
  5332  0004  147E               	bsf	int$flags,0	;set compiler interrupt flag (level 1)
  5333                           
  5334                           ; Regs used in _INTERRUPT_InterruptManager: [wreg+status,2+status,0+pclath+cstack]
  5335  0005  3180               	pagesel	$
  5336  0006                     i1l1575:
  5337                           
  5338                           ;mcc_generated_files/interrupt_manager.c: 55:     if(PIE0bits.TMR0IE == 1 && PIR0bits.TM
      +                          R0IF == 1)
  5339  0006  014E               	movlb	14	; select bank14
  5340  0007  1E96               	btfss	22,5	;volatile
  5341  0008  280A               	goto	u33_21
  5342  0009  280B               	goto	u33_20
  5343  000A                     u33_21:
  5344  000A  2813               	goto	i1l263
  5345  000B                     u33_20:
  5346  000B                     i1l1577:
  5347  000B  1E8C               	btfss	12,5	;volatile
  5348  000C  280E               	goto	u34_21
  5349  000D  280F               	goto	u34_20
  5350  000E                     u34_21:
  5351  000E  2813               	goto	i1l263
  5352  000F                     u34_20:
  5353  000F                     i1l1579:
  5354                           
  5355                           ;mcc_generated_files/interrupt_manager.c: 56:     {;mcc_generated_files/interrupt_manage
      +                          r.c: 57:         TMR0_ISR();
  5356  000F  3182  227C  3180   	fcall	_TMR0_ISR
  5357                           
  5358                           ;mcc_generated_files/interrupt_manager.c: 58:     }
  5359  0012  282F               	goto	i1l271
  5360  0013                     i1l263:	
  5361                           ;mcc_generated_files/interrupt_manager.c: 59:     else if(PIE0bits.IOCIE == 1 && PIR0bit
      +                          s.IOCIF == 1)
  5362                           
  5363  0013  1E16               	btfss	22,4	;volatile
  5364  0014  2816               	goto	u35_21
  5365  0015  2817               	goto	u35_20
  5366  0016                     u35_21:
  5367  0016  281F               	goto	i1l265
  5368  0017                     u35_20:
  5369  0017                     i1l1581:
  5370  0017  1E0C               	btfss	12,4	;volatile
  5371  0018  281A               	goto	u36_21
  5372  0019  281B               	goto	u36_20
  5373  001A                     u36_21:
  5374  001A  281F               	goto	i1l265
  5375  001B                     u36_20:
  5376  001B                     i1l1583:
  5377                           
  5378                           ;mcc_generated_files/interrupt_manager.c: 60:     {;mcc_generated_files/interrupt_manage
      +                          r.c: 61:         PIN_MANAGER_IOC();
  5379  001B  3182  22C7  3180   	fcall	_PIN_MANAGER_IOC
  5380                           
  5381                           ;mcc_generated_files/interrupt_manager.c: 62:     }
  5382  001E  282F               	goto	i1l271
  5383  001F                     i1l265:	
  5384                           ;mcc_generated_files/interrupt_manager.c: 63:     else if(INTCONbits.PEIE == 1)
  5385                           
  5386  001F  1F0B               	btfss	11,6	;volatile
  5387  0020  2822               	goto	u37_21
  5388  0021  2823               	goto	u37_20
  5389  0022                     u37_21:
  5390  0022  282F               	goto	i1l266
  5391  0023                     u37_20:
  5392  0023                     i1l1585:
  5393                           
  5394                           ;mcc_generated_files/interrupt_manager.c: 64:     {;mcc_generated_files/interrupt_manage
      +                          r.c: 65:         if(PIE4bits.TMR1IE == 1 && PIR4bits.TMR1IF == 1)
  5395  0023  1C1A               	btfss	26,0	;volatile
  5396  0024  2826               	goto	u38_21
  5397  0025  2827               	goto	u38_20
  5398  0026                     u38_21:
  5399  0026  282F               	goto	i1l266
  5400  0027                     u38_20:
  5401  0027                     i1l1587:
  5402  0027  1C10               	btfss	16,0	;volatile
  5403  0028  282A               	goto	u39_21
  5404  0029  282B               	goto	u39_20
  5405  002A                     u39_21:
  5406  002A  282F               	goto	i1l266
  5407  002B                     u39_20:
  5408  002B                     i1l1589:
  5409                           
  5410                           ;mcc_generated_files/interrupt_manager.c: 66:         {;mcc_generated_files/interrupt_ma
      +                          nager.c: 67:             TMR1_ISR();
  5411  002B  3182  220C  3180   	fcall	_TMR1_ISR
  5412                           
  5413                           ;mcc_generated_files/interrupt_manager.c: 68:         }
  5414  002E  282F               	goto	i1l271
  5415  002F                     i1l266:
  5416  002F                     i1l271:
  5417  002F  107E               	bcf	int$flags,0	;clear compiler interrupt flag (level 1)
  5418  0030  0009               	retfie
  5419  0031                     __end_of_INTERRUPT_InterruptManager:
  5420                           
  5421                           	psect	text21
  5422  020C                     __ptext21:	
  5423 ;; *************** function _TMR1_ISR *****************
  5424 ;; Defined at:
  5425 ;;		line 164 in file "mcc_generated_files/tmr1.c"
  5426 ;; Parameters:    Size  Location     Type
  5427 ;;		None
  5428 ;; Auto vars:     Size  Location     Type
  5429 ;;		None
  5430 ;; Return value:  Size  Location     Type
  5431 ;;                  1    wreg      void 
  5432 ;; Registers used:
  5433 ;;		wreg, status,2, status,0, pclath, cstack
  5434 ;; Tracked objects:
  5435 ;;		On entry : 0/0
  5436 ;;		On exit  : 0/0
  5437 ;;		Unchanged: 0/0
  5438 ;; Data sizes:     COMMON   BANK0   BANK1   BANK2   BANK3   BANK4   BANK5   BANK6   BANK7   BANK8   BANK9  BANK10  BANK1
      +1  BANK12
  5439 ;;      Params:         0       0       0       0       0       0       0       0       0       0       0       0       
      +0       0
  5440 ;;      Locals:         0       0       0       0       0       0       0       0       0       0       0       0       
      +0       0
  5441 ;;      Temps:          0       0       0       0       0       0       0       0       0       0       0       0       
      +0       0
  5442 ;;      Totals:         0       0       0       0       0       0       0       0       0       0       0       0       
      +0       0
  5443 ;;Total ram usage:        0 bytes
  5444 ;; Hardware stack levels used: 1
  5445 ;; Hardware stack levels required when called: 1
  5446 ;; This function calls:
  5447 ;;		Absolute function
  5448 ;;		_TMR1_DefaultInterruptHandler
  5449 ;;		i1_TMR1_WriteTimer
  5450 ;; This function is called by:
  5451 ;;		_INTERRUPT_InterruptManager
  5452 ;; This function uses a non-reentrant model
  5453 ;;
  5454                           
  5455                           
  5456                           ;psect for function _TMR1_ISR
  5457  020C                     _TMR1_ISR:
  5458  020C                     i1l1545:	
  5459                           ;incstack = 0
  5460                           ; Regs used in _TMR1_ISR: [wreg+status,2+status,0+pclath+cstack]
  5461                           
  5462                           
  5463                           ;mcc_generated_files/tmr1.c: 168:     PIR4bits.TMR1IF = 0;
  5464  020C  014E               	movlb	14	; select bank14
  5465  020D  1010               	bcf	16,0	;volatile
  5466  020E                     i1l1547:
  5467                           
  5468                           ;mcc_generated_files/tmr1.c: 169:     TMR1_WriteTimer(timer1ReloadVal);
  5469  020E  0140               	movlb	0	; select bank0
  5470  020F  0858               	movf	_timer1ReloadVal+1,w	;volatile
  5471  0210  00F1               	movwf	i1TMR1_WriteTimer@timerVal+1
  5472  0211  0857               	movf	_timer1ReloadVal,w	;volatile
  5473  0212  00F0               	movwf	i1TMR1_WriteTimer@timerVal
  5474  0213  3182  225C  3182   	fcall	i1_TMR1_WriteTimer
  5475  0216                     i1l1549:
  5476                           
  5477                           ;mcc_generated_files/tmr1.c: 171:     if(TMR1_InterruptHandler)
  5478  0216  0140               	movlb	0	; select bank0
  5479  0217  0855               	movf	_TMR1_InterruptHandler,w
  5480  0218  0456               	iorwf	_TMR1_InterruptHandler+1,w
  5481  0219  1903               	btfsc	3,2
  5482  021A  2A1C               	goto	u31_21
  5483  021B  2A1D               	goto	u31_20
  5484  021C                     u31_21:
  5485  021C  2A22               	goto	i1l329
  5486  021D                     u31_20:
  5487  021D                     i1l1551:
  5488                           
  5489                           ;mcc_generated_files/tmr1.c: 172:     {;mcc_generated_files/tmr1.c: 173:         TMR1_In
      +                          terruptHandler();
  5490  021D  0856               	movf	_TMR1_InterruptHandler+1,w
  5491  021E  008A               	movwf	10
  5492  021F  0855               	movf	_TMR1_InterruptHandler,w
  5493  0220  000A               	callw
  5494  0221  3182               	pagesel	$
  5495  0222                     i1l329:
  5496  0222  0008               	return
  5497  0223                     __end_of_TMR1_ISR:
  5498                           
  5499                           	psect	text22
  5500  025C                     __ptext22:	
  5501 ;; *************** function i1_TMR1_WriteTimer *****************
  5502 ;; Defined at:
  5503 ;;		line 127 in file "mcc_generated_files/tmr1.c"
  5504 ;; Parameters:    Size  Location     Type
  5505 ;;  timerVal        2    0[COMMON] unsigned short 
  5506 ;; Auto vars:     Size  Location     Type
  5507 ;;		None
  5508 ;; Return value:  Size  Location     Type
  5509 ;;                  1    wreg      void 
  5510 ;; Registers used:
  5511 ;;		wreg, status,2
  5512 ;; Tracked objects:
  5513 ;;		On entry : 0/0
  5514 ;;		On exit  : 0/0
  5515 ;;		Unchanged: 0/0
  5516 ;; Data sizes:     COMMON   BANK0   BANK1   BANK2   BANK3   BANK4   BANK5   BANK6   BANK7   BANK8   BANK9  BANK10  BANK1
      +1  BANK12
  5517 ;;      Params:         2       0       0       0       0       0       0       0       0       0       0       0       
      +0       0
  5518 ;;      Locals:         0       0       0       0       0       0       0       0       0       0       0       0       
      +0       0
  5519 ;;      Temps:          0       0       0       0       0       0       0       0       0       0       0       0       
      +0       0
  5520 ;;      Totals:         2       0       0       0       0       0       0       0       0       0       0       0       
      +0       0
  5521 ;;Total ram usage:        2 bytes
  5522 ;; Hardware stack levels used: 1
  5523 ;; This function calls:
  5524 ;;		Nothing
  5525 ;; This function is called by:
  5526 ;;		_TMR1_ISR
  5527 ;; This function uses a non-reentrant model
  5528 ;;
  5529                           
  5530                           
  5531                           ;psect for function i1_TMR1_WriteTimer
  5532  025C                     i1_TMR1_WriteTimer:
  5533  025C                     i1l1505:	
  5534                           ;incstack = 0
  5535                           ; Regs used in i1_TMR1_WriteTimer: [wreg+status,2]
  5536                           
  5537                           
  5538                           ;mcc_generated_files/tmr1.c: 127: void TMR1_WriteTimer(uint16_t timerVal);mcc_generated_
      +                          files/tmr1.c: 128: {;mcc_generated_files/tmr1.c: 129:     if (T1CONbits.nT1SYNC == 1)
  5539  025C  0144               	movlb	4	; select bank4
  5540  025D  1D0E               	btfss	14,2	;volatile
  5541  025E  2A60               	goto	u28_21
  5542  025F  2A61               	goto	u28_20
  5543  0260                     u28_21:
  5544  0260  2A68               	goto	i1l1515
  5545  0261                     u28_20:
  5546  0261                     i1l1507:
  5547                           
  5548                           ;mcc_generated_files/tmr1.c: 130:     {;mcc_generated_files/tmr1.c: 132:         T1CONbi
      +                          ts.TMR1ON = 0;
  5549  0261  100E               	bcf	14,0	;volatile
  5550  0262                     i1l1509:
  5551                           
  5552                           ;mcc_generated_files/tmr1.c: 135:         TMR1H = (uint8_t)(timerVal >> 8);
  5553  0262  0871               	movf	i1TMR1_WriteTimer@timerVal+1,w
  5554  0263  008D               	movwf	13	;volatile
  5555  0264                     i1l1511:
  5556                           
  5557                           ;mcc_generated_files/tmr1.c: 136:         TMR1L = (uint8_t)timerVal;
  5558  0264  0870               	movf	i1TMR1_WriteTimer@timerVal,w
  5559  0265  008C               	movwf	12	;volatile
  5560  0266                     i1l1513:
  5561                           
  5562                           ;mcc_generated_files/tmr1.c: 139:         T1CONbits.TMR1ON =1;
  5563  0266  140E               	bsf	14,0	;volatile
  5564                           
  5565                           ;mcc_generated_files/tmr1.c: 140:     }
  5566  0267  2A6C               	goto	i1l316
  5567  0268                     i1l1515:
  5568                           
  5569                           ;mcc_generated_files/tmr1.c: 142:     {;mcc_generated_files/tmr1.c: 144:         TMR1H =
      +                           (uint8_t)(timerVal >> 8);
  5570  0268  0871               	movf	i1TMR1_WriteTimer@timerVal+1,w
  5571  0269  008D               	movwf	13	;volatile
  5572  026A                     i1l1517:
  5573                           
  5574                           ;mcc_generated_files/tmr1.c: 145:         TMR1L = (uint8_t)timerVal;
  5575  026A  0870               	movf	i1TMR1_WriteTimer@timerVal,w
  5576  026B  008C               	movwf	12	;volatile
  5577  026C                     i1l316:
  5578  026C  0008               	return
  5579  026D                     __end_ofi1_TMR1_WriteTimer:
  5580                           
  5581                           	psect	text23
  5582  02FD                     __ptext23:	
  5583 ;; *************** function _TMR1_DefaultInterruptHandler *****************
  5584 ;; Defined at:
  5585 ;;		line 182 in file "mcc_generated_files/tmr1.c"
  5586 ;; Parameters:    Size  Location     Type
  5587 ;;		None
  5588 ;; Auto vars:     Size  Location     Type
  5589 ;;		None
  5590 ;; Return value:  Size  Location     Type
  5591 ;;                  1    wreg      void 
  5592 ;; Registers used:
  5593 ;;		None
  5594 ;; Tracked objects:
  5595 ;;		On entry : 0/0
  5596 ;;		On exit  : 0/0
  5597 ;;		Unchanged: 0/0
  5598 ;; Data sizes:     COMMON   BANK0   BANK1   BANK2   BANK3   BANK4   BANK5   BANK6   BANK7   BANK8   BANK9  BANK10  BANK1
      +1  BANK12
  5599 ;;      Params:         0       0       0       0       0       0       0       0       0       0       0       0       
      +0       0
  5600 ;;      Locals:         0       0       0       0       0       0       0       0       0       0       0       0       
      +0       0
  5601 ;;      Temps:          0       0       0       0       0       0       0       0       0       0       0       0       
      +0       0
  5602 ;;      Totals:         0       0       0       0       0       0       0       0       0       0       0       0       
      +0       0
  5603 ;;Total ram usage:        0 bytes
  5604 ;; Hardware stack levels used: 1
  5605 ;; This function calls:
  5606 ;;		Nothing
  5607 ;; This function is called by:
  5608 ;;		_TMR1_Initialize
  5609 ;;		_TMR1_ISR
  5610 ;; This function uses a non-reentrant model
  5611 ;;
  5612                           
  5613                           
  5614                           ;psect for function _TMR1_DefaultInterruptHandler
  5615  02FD                     _TMR1_DefaultInterruptHandler:
  5616  02FD                     i1l335:	
  5617                           ;incstack = 0
  5618                           ; Regs used in _TMR1_DefaultInterruptHandler: []
  5619                           
  5620  02FD  0008               	return
  5621  02FE                     __end_of_TMR1_DefaultInterruptHandler:
  5622                           
  5623                           	psect	text24
  5624  027C                     __ptext24:	
  5625 ;; *************** function _TMR0_ISR *****************
  5626 ;; Defined at:
  5627 ;;		line 121 in file "mcc_generated_files/tmr0.c"
  5628 ;; Parameters:    Size  Location     Type
  5629 ;;		None
  5630 ;; Auto vars:     Size  Location     Type
  5631 ;;		None
  5632 ;; Return value:  Size  Location     Type
  5633 ;;                  1    wreg      void 
  5634 ;; Registers used:
  5635 ;;		wreg, status,2, status,0, pclath, cstack
  5636 ;; Tracked objects:
  5637 ;;		On entry : 0/0
  5638 ;;		On exit  : 0/0
  5639 ;;		Unchanged: 0/0
  5640 ;; Data sizes:     COMMON   BANK0   BANK1   BANK2   BANK3   BANK4   BANK5   BANK6   BANK7   BANK8   BANK9  BANK10  BANK1
      +1  BANK12
  5641 ;;      Params:         0       0       0       0       0       0       0       0       0       0       0       0       
      +0       0
  5642 ;;      Locals:         0       0       0       0       0       0       0       0       0       0       0       0       
      +0       0
  5643 ;;      Temps:          0       0       0       0       0       0       0       0       0       0       0       0       
      +0       0
  5644 ;;      Totals:         0       0       0       0       0       0       0       0       0       0       0       0       
      +0       0
  5645 ;;Total ram usage:        0 bytes
  5646 ;; Hardware stack levels used: 1
  5647 ;; Hardware stack levels required when called: 1
  5648 ;; This function calls:
  5649 ;;		Absolute function
  5650 ;;		_TMR0_DefaultInterruptHandler
  5651 ;; This function is called by:
  5652 ;;		_INTERRUPT_InterruptManager
  5653 ;; This function uses a non-reentrant model
  5654 ;;
  5655                           
  5656                           
  5657                           ;psect for function _TMR0_ISR
  5658  027C                     _TMR0_ISR:
  5659  027C                     i1l1539:	
  5660                           ;incstack = 0
  5661                           ; Regs used in _TMR0_ISR: [wreg+status,2+status,0+pclath+cstack]
  5662                           
  5663                           
  5664                           ;mcc_generated_files/tmr0.c: 124:     PIR0bits.TMR0IF = 0;
  5665  027C  014E               	movlb	14	; select bank14
  5666  027D  128C               	bcf	12,5	;volatile
  5667  027E                     i1l1541:
  5668                           
  5669                           ;mcc_generated_files/tmr0.c: 125:     if(TMR0_InterruptHandler)
  5670  027E  0140               	movlb	0	; select bank0
  5671  027F  0853               	movf	_TMR0_InterruptHandler,w
  5672  0280  0454               	iorwf	_TMR0_InterruptHandler+1,w
  5673  0281  1903               	btfsc	3,2
  5674  0282  2A84               	goto	u30_21
  5675  0283  2A85               	goto	u30_20
  5676  0284                     u30_21:
  5677  0284  2A8A               	goto	i1l457
  5678  0285                     u30_20:
  5679  0285                     i1l1543:
  5680                           
  5681                           ;mcc_generated_files/tmr0.c: 126:     {;mcc_generated_files/tmr0.c: 127:         TMR0_In
      +                          terruptHandler();
  5682  0285  0854               	movf	_TMR0_InterruptHandler+1,w
  5683  0286  008A               	movwf	10
  5684  0287  0853               	movf	_TMR0_InterruptHandler,w
  5685  0288  000A               	callw
  5686  0289  3182               	pagesel	$
  5687  028A                     i1l457:
  5688  028A  0008               	return
  5689  028B                     __end_of_TMR0_ISR:
  5690                           
  5691                           	psect	text25
  5692  02FE                     __ptext25:	
  5693 ;; *************** function _TMR0_DefaultInterruptHandler *****************
  5694 ;; Defined at:
  5695 ;;		line 138 in file "mcc_generated_files/tmr0.c"
  5696 ;; Parameters:    Size  Location     Type
  5697 ;;		None
  5698 ;; Auto vars:     Size  Location     Type
  5699 ;;		None
  5700 ;; Return value:  Size  Location     Type
  5701 ;;                  1    wreg      void 
  5702 ;; Registers used:
  5703 ;;		None
  5704 ;; Tracked objects:
  5705 ;;		On entry : 0/0
  5706 ;;		On exit  : 0/0
  5707 ;;		Unchanged: 0/0
  5708 ;; Data sizes:     COMMON   BANK0   BANK1   BANK2   BANK3   BANK4   BANK5   BANK6   BANK7   BANK8   BANK9  BANK10  BANK1
      +1  BANK12
  5709 ;;      Params:         0       0       0       0       0       0       0       0       0       0       0       0       
      +0       0
  5710 ;;      Locals:         0       0       0       0       0       0       0       0       0       0       0       0       
      +0       0
  5711 ;;      Temps:          0       0       0       0       0       0       0       0       0       0       0       0       
      +0       0
  5712 ;;      Totals:         0       0       0       0       0       0       0       0       0       0       0       0       
      +0       0
  5713 ;;Total ram usage:        0 bytes
  5714 ;; Hardware stack levels used: 1
  5715 ;; This function calls:
  5716 ;;		Nothing
  5717 ;; This function is called by:
  5718 ;;		_TMR0_Initialize
  5719 ;;		_TMR0_ISR
  5720 ;; This function uses a non-reentrant model
  5721 ;;
  5722                           
  5723                           
  5724                           ;psect for function _TMR0_DefaultInterruptHandler
  5725  02FE                     _TMR0_DefaultInterruptHandler:
  5726  02FE                     i1l463:	
  5727                           ;incstack = 0
  5728                           ; Regs used in _TMR0_DefaultInterruptHandler: []
  5729                           
  5730  02FE  0008               	return
  5731  02FF                     __end_of_TMR0_DefaultInterruptHandler:
  5732                           
  5733                           	psect	text26
  5734  02C7                     __ptext26:	
  5735 ;; *************** function _PIN_MANAGER_IOC *****************
  5736 ;; Defined at:
  5737 ;;		line 124 in file "mcc_generated_files/pin_manager.c"
  5738 ;; Parameters:    Size  Location     Type
  5739 ;;		None
  5740 ;; Auto vars:     Size  Location     Type
  5741 ;;		None
  5742 ;; Return value:  Size  Location     Type
  5743 ;;                  1    wreg      void 
  5744 ;; Registers used:
  5745 ;;		wreg, status,2, status,0, pclath, cstack
  5746 ;; Tracked objects:
  5747 ;;		On entry : 0/0
  5748 ;;		On exit  : 0/0
  5749 ;;		Unchanged: 0/0
  5750 ;; Data sizes:     COMMON   BANK0   BANK1   BANK2   BANK3   BANK4   BANK5   BANK6   BANK7   BANK8   BANK9  BANK10  BANK1
      +1  BANK12
  5751 ;;      Params:         0       0       0       0       0       0       0       0       0       0       0       0       
      +0       0
  5752 ;;      Locals:         0       0       0       0       0       0       0       0       0       0       0       0       
      +0       0
  5753 ;;      Temps:          0       0       0       0       0       0       0       0       0       0       0       0       
      +0       0
  5754 ;;      Totals:         0       0       0       0       0       0       0       0       0       0       0       0       
      +0       0
  5755 ;;Total ram usage:        0 bytes
  5756 ;; Hardware stack levels used: 1
  5757 ;; Hardware stack levels required when called: 2
  5758 ;; This function calls:
  5759 ;;		_IOCCF4_ISR
  5760 ;; This function is called by:
  5761 ;;		_INTERRUPT_InterruptManager
  5762 ;; This function uses a non-reentrant model
  5763 ;;
  5764                           
  5765                           
  5766                           ;psect for function _PIN_MANAGER_IOC
  5767  02C7                     _PIN_MANAGER_IOC:
  5768  02C7                     i1l1519:	
  5769                           ;incstack = 0
  5770                           ; Regs used in _PIN_MANAGER_IOC: [wreg+status,2+status,0+pclath+cstack]
  5771                           
  5772                           
  5773                           ;mcc_generated_files/pin_manager.c: 127:     if(IOCCFbits.IOCCF4 == 1)
  5774  02C7  017E               	movlb	62	; select bank62
  5775  02C8  1E55               	btfss	85,4	;volatile
  5776  02C9  2ACB               	goto	u29_21
  5777  02CA  2ACC               	goto	u29_20
  5778  02CB                     u29_21:
  5779  02CB  2ACF               	goto	i1l152
  5780  02CC                     u29_20:
  5781  02CC                     i1l1521:
  5782                           
  5783                           ;mcc_generated_files/pin_manager.c: 128:     {;mcc_generated_files/pin_manager.c: 129:  
      +                                 IOCCF4_ISR();
  5784  02CC  3182  228B  3182   	fcall	_IOCCF4_ISR
  5785  02CF                     i1l152:
  5786  02CF  0008               	return
  5787  02D0                     __end_of_PIN_MANAGER_IOC:
  5788                           
  5789                           	psect	text27
  5790  028B                     __ptext27:	
  5791 ;; *************** function _IOCCF4_ISR *****************
  5792 ;; Defined at:
  5793 ;;		line 136 in file "mcc_generated_files/pin_manager.c"
  5794 ;; Parameters:    Size  Location     Type
  5795 ;;		None
  5796 ;; Auto vars:     Size  Location     Type
  5797 ;;		None
  5798 ;; Return value:  Size  Location     Type
  5799 ;;                  1    wreg      void 
  5800 ;; Registers used:
  5801 ;;		wreg, status,2, status,0, pclath, cstack
  5802 ;; Tracked objects:
  5803 ;;		On entry : 0/0
  5804 ;;		On exit  : 0/0
  5805 ;;		Unchanged: 0/0
  5806 ;; Data sizes:     COMMON   BANK0   BANK1   BANK2   BANK3   BANK4   BANK5   BANK6   BANK7   BANK8   BANK9  BANK10  BANK1
      +1  BANK12
  5807 ;;      Params:         0       0       0       0       0       0       0       0       0       0       0       0       
      +0       0
  5808 ;;      Locals:         0       0       0       0       0       0       0       0       0       0       0       0       
      +0       0
  5809 ;;      Temps:          0       0       0       0       0       0       0       0       0       0       0       0       
      +0       0
  5810 ;;      Totals:         0       0       0       0       0       0       0       0       0       0       0       0       
      +0       0
  5811 ;;Total ram usage:        0 bytes
  5812 ;; Hardware stack levels used: 1
  5813 ;; Hardware stack levels required when called: 1
  5814 ;; This function calls:
  5815 ;;		Absolute function
  5816 ;;		_IOCCF4_DefaultInterruptHandler
  5817 ;; This function is called by:
  5818 ;;		_PIN_MANAGER_IOC
  5819 ;; This function uses a non-reentrant model
  5820 ;;
  5821                           
  5822                           
  5823                           ;psect for function _IOCCF4_ISR
  5824  028B                     _IOCCF4_ISR:
  5825  028B                     i1l1429:	
  5826                           ;incstack = 0
  5827                           ; Regs used in _IOCCF4_ISR: [wreg+status,2+status,0+pclath+cstack]
  5828                           
  5829                           
  5830                           ;mcc_generated_files/pin_manager.c: 141:     if(IOCCF4_InterruptHandler)
  5831  028B  0140               	movlb	0	; select bank0
  5832  028C  0859               	movf	_IOCCF4_InterruptHandler,w
  5833  028D  045A               	iorwf	_IOCCF4_InterruptHandler+1,w
  5834  028E  1903               	btfsc	3,2
  5835  028F  2A91               	goto	u25_21
  5836  0290  2A92               	goto	u25_20
  5837  0291                     u25_21:
  5838  0291  2A97               	goto	i1l1433
  5839  0292                     u25_20:
  5840  0292                     i1l1431:
  5841                           
  5842                           ;mcc_generated_files/pin_manager.c: 142:     {;mcc_generated_files/pin_manager.c: 143:  
      +                                 IOCCF4_InterruptHandler();
  5843  0292  085A               	movf	_IOCCF4_InterruptHandler+1,w
  5844  0293  008A               	movwf	10
  5845  0294  0859               	movf	_IOCCF4_InterruptHandler,w
  5846  0295  000A               	callw
  5847  0296  3182               	pagesel	$
  5848  0297                     i1l1433:
  5849                           
  5850                           ;mcc_generated_files/pin_manager.c: 145:     IOCCFbits.IOCCF4 = 0;
  5851  0297  017E               	movlb	62	; select bank62
  5852  0298  1255               	bcf	85,4	;volatile
  5853  0299                     i1l156:
  5854  0299  0008               	return
  5855  029A                     __end_of_IOCCF4_ISR:
  5856                           
  5857                           	psect	text28
  5858  0237                     __ptext28:	
  5859 ;; *************** function _IOCCF4_DefaultInterruptHandler *****************
  5860 ;; Defined at:
  5861 ;;		line 158 in file "mcc_generated_files/pin_manager.c"
  5862 ;; Parameters:    Size  Location     Type
  5863 ;;		None
  5864 ;; Auto vars:     Size  Location     Type
  5865 ;;		None
  5866 ;; Return value:  Size  Location     Type
  5867 ;;                  1    wreg      void 
  5868 ;; Registers used:
  5869 ;;		wreg, status,2, status,0
  5870 ;; Tracked objects:
  5871 ;;		On entry : 0/0
  5872 ;;		On exit  : 0/0
  5873 ;;		Unchanged: 0/0
  5874 ;; Data sizes:     COMMON   BANK0   BANK1   BANK2   BANK3   BANK4   BANK5   BANK6   BANK7   BANK8   BANK9  BANK10  BANK1
      +1  BANK12
  5875 ;;      Params:         0       0       0       0       0       0       0       0       0       0       0       0       
      +0       0
  5876 ;;      Locals:         0       0       0       0       0       0       0       0       0       0       0       0       
      +0       0
  5877 ;;      Temps:          1       0       0       0       0       0       0       0       0       0       0       0       
      +0       0
  5878 ;;      Totals:         1       0       0       0       0       0       0       0       0       0       0       0       
      +0       0
  5879 ;;Total ram usage:        1 bytes
  5880 ;; Hardware stack levels used: 1
  5881 ;; This function calls:
  5882 ;;		Nothing
  5883 ;; This function is called by:
  5884 ;;		_PIN_MANAGER_Initialize
  5885 ;;		_IOCCF4_ISR
  5886 ;; This function uses a non-reentrant model
  5887 ;;
  5888                           
  5889                           
  5890                           ;psect for function _IOCCF4_DefaultInterruptHandler
  5891  0237                     _IOCCF4_DefaultInterruptHandler:
  5892  0237                     i1l1355:	
  5893                           ;incstack = 0
  5894                           ; Regs used in _IOCCF4_DefaultInterruptHandler: [wreg+status,2+status,0]
  5895                           
  5896                           
  5897                           ;mcc_generated_files/pin_manager.c: 160:     paused = 0;
  5898  0237  0140               	movlb	0	; select bank0
  5899  0238  01A0               	clrf	_paused
  5900  0239                     i1l1357:
  5901                           
  5902                           ;mcc_generated_files/pin_manager.c: 161:     static uint8_t flag = 0;;mcc_generated_file
      +                          s/pin_manager.c: 162:     flag = !flag;
  5903  0239  087B               	movf	IOCCF4_DefaultInterruptHandler@flag,w
  5904  023A  1903               	btfsc	3,2
  5905  023B  2A3D               	goto	u23_21
  5906  023C  2A3F               	goto	u23_20
  5907  023D                     u23_21:
  5908  023D  3001               	movlw	1
  5909  023E  2A40               	goto	u24_20
  5910  023F                     u23_20:
  5911  023F  3000               	movlw	0
  5912  0240                     u24_20:
  5913  0240  00F0               	movwf	??_IOCCF4_DefaultInterruptHandler
  5914  0241  0870               	movf	??_IOCCF4_DefaultInterruptHandler,w
  5915  0242  00FB               	movwf	IOCCF4_DefaultInterruptHandler@flag
  5916                           
  5917                           ;mcc_generated_files/pin_manager.c: 163:     LATCbits.LATC1 = flag;
  5918  0243  0C7B               	rrf	IOCCF4_DefaultInterruptHandler@flag,w
  5919  0244  1C03               	skipc
  5920  0245  109A               	bcf	26,1	;volatile
  5921  0246  1803               	skipnc
  5922  0247  149A               	bsf	26,1	;volatile
  5923  0248                     i1l1359:
  5924                           
  5925                           ;mcc_generated_files/pin_manager.c: 164:     IOCCFbits.IOCCF4 = 0;
  5926  0248  017E               	movlb	62	; select bank62
  5927  0249  1255               	bcf	85,4	;volatile
  5928  024A                     i1l164:
  5929  024A  0008               	return
  5930  024B                     __end_of_IOCCF4_DefaultInterruptHandler:
  5931  007E                     btemp	set	126	;btemp
  5932  007E                     int$flags	set	126
  5933  007E                     wtemp0	set	126
  5934  2360                     
  5935                           	psect	config
  5936                           
  5937                           ;Config register CONFIG1 @ 0x8007
  5938                           ;	External Oscillator mode selection bits
  5939                           ;	FEXTOSC = OFF, Oscillator not enabled
  5940                           ;	Power-up default value for COSC bits
  5941                           ;	RSTOSC = HFINT1, HFINTOSC (1MHz)
  5942                           ;	Clock Out Enable bit
  5943                           ;	CLKOUTEN = OFF, CLKOUT function is disabled; i/o or oscillator function on OSC2
  5944                           ;	Clock Switch Enable bit
  5945                           ;	CSWEN = ON, Writing to NOSC and NDIV is allowed
  5946                           ;	Fail-Safe Clock Monitor Enable bit
  5947                           ;	FCMEN = ON, FSCM timer enabled
  5948  8007                     	org	32775
  5949  8007  3FEC               	dw	16364
  5950                           
  5951                           ;Config register CONFIG2 @ 0x8008
  5952                           ;	Master Clear Enable bit
  5953                           ;	MCLRE = ON, MCLR pin is Master Clear function
  5954                           ;	Power-up Timer Enable bit
  5955                           ;	PWRTE = OFF, PWRT disabled
  5956                           ;	Low-Power BOR enable bit
  5957                           ;	LPBOREN = OFF, ULPBOR disabled
  5958                           ;	Brown-out reset enable bits
  5959                           ;	BOREN = ON, Brown-out Reset Enabled, SBOREN bit is ignored
  5960                           ;	Brown-out Reset Voltage Selection
  5961                           ;	BORV = LO, Brown-out Reset Voltage (VBOR) set to 1.9V on LF, and 2.45V on F Devices
  5962                           ;	Zero-cross detect disable
  5963                           ;	ZCD = OFF, Zero-cross detect circuit is disabled at POR.
  5964                           ;	Peripheral Pin Select one-way control
  5965                           ;	PPS1WAY = ON, The PPSLOCK bit can be cleared and set only once in software
  5966                           ;	Stack Overflow/Underflow Reset Enable bit
  5967                           ;	STVREN = ON, Stack Overflow or Underflow will cause a reset
  5968  8008                     	org	32776
  5969  8008  3FFF               	dw	16383
  5970                           
  5971                           ;Config register CONFIG3 @ 0x8009
  5972                           ;	WDT Period Select bits
  5973                           ;	WDTCPS = WDTCPS_31, Divider ratio 1:65536; software control of WDTPS
  5974                           ;	WDT operating mode
  5975                           ;	WDTE = OFF, WDT Disabled, SWDTEN is ignored
  5976                           ;	WDT Window Select bits
  5977                           ;	WDTCWS = WDTCWS_7, window always open (100%); software control; keyed access not requi
      +                          red
  5978                           ;	WDT input clock selector
  5979                           ;	WDTCCS = SC, Software Control
  5980  8009                     	org	32777
  5981  8009  3F9F               	dw	16287
  5982                           
  5983                           ;Config register CONFIG4 @ 0x800A
  5984                           ;	Boot Block Size Selection bits
  5985                           ;	BBSIZE = BB512, 512 words boot block size
  5986                           ;	Boot Block Enable bit
  5987                           ;	BBEN = OFF, Boot Block disabled
  5988                           ;	SAF Enable bit
  5989                           ;	SAFEN = OFF, SAF disabled
  5990                           ;	Application Block Write Protection bit
  5991                           ;	WRTAPP = OFF, Application Block not write protected
  5992                           ;	Boot Block Write Protection bit
  5993                           ;	WRTB = OFF, Boot Block not write protected
  5994                           ;	Configuration Register Write Protection bit
  5995                           ;	WRTC = OFF, Configuration Register not write protected
  5996                           ;	Storage Area Flash Write Protection bit
  5997                           ;	WRTSAF = OFF, SAF not write protected
  5998                           ;	Low Voltage Programming Enable bit
  5999                           ;	LVP = ON, Low Voltage programming enabled. MCLR/Vpp pin function is MCLR.
  6000  800A                     	org	32778
  6001  800A  3FFF               	dw	16383
  6002                           
  6003                           ;Config register CONFIG5 @ 0x800B
  6004                           ;	UserNVM Program memory code protection bit
  6005                           ;	CP = OFF, UserNVM code protection disabled
  6006  800B                     	org	32779
  6007  800B  3FFF               	dw	16383

Data Sizes:
    Strings     0
    Constant    0
    Data        195
    BSS         4
    Persistent  40
    Stack       0

Auto Spaces:
    Space          Size  Autos    Used
    COMMON           14     10      12
    BANK0            80      2      63
    BANK1            80      0       0
    BANK2            80      0       0
    BANK3            80      0       0
    BANK4            80      0       0
    BANK5            80      0       0
    BANK6            80      0       0
    BANK7            80      0       0
    BANK8            80      0       0
    BANK9            80      0       0
    BANK10           64      0       0
    BANK11            0      0       0
    BANK12            0      0       0

Pointer List with Targets:

    TMR0_SetInterruptHandler@InterruptHandler	PTR FTN()void  size(2) Largest target is 1
		 -> TMR0_DefaultInterruptHandler(), 

    TMR0_InterruptHandler	PTR FTN()void  size(2) Largest target is 1
		 -> TMR0_DefaultInterruptHandler(), Absolute function(), 

    play_track@track	PTR unsigned char  size(2) Largest target is 144
		 -> track_silent_night(BIGRAM[144]), track_we_wish(BANK0[48]), 

    TMR1_SetInterruptHandler@InterruptHandler	PTR FTN()void  size(2) Largest target is 1
		 -> TMR1_DefaultInterruptHandler(), 

    TMR1_InterruptHandler	PTR FTN()void  size(2) Largest target is 1
		 -> TMR1_DefaultInterruptHandler(), Absolute function(), 

    IOCCF4_SetInterruptHandler@InterruptHandler	PTR FTN()void  size(2) Largest target is 1
		 -> IOCCF4_DefaultInterruptHandler(), 

    IOCCF4_InterruptHandler	PTR FTN()void  size(2) Largest target is 1
		 -> Absolute function(), IOCCF4_DefaultInterruptHandler(), 


Critical Paths under _main in COMMON

    _next_track->_play_track
    _TMR1_Reload->_TMR1_WriteTimer
    _TMR1_Initialize->_TMR1_SetInterruptHandler
    _TMR0_Initialize->_TMR0_SetInterruptHandler
    _PIN_MANAGER_Initialize->_IOCCF4_SetInterruptHandler

Critical Paths under _INTERRUPT_InterruptManager in COMMON

    _TMR1_ISR->i1_TMR1_WriteTimer
    _IOCCF4_ISR->_IOCCF4_DefaultInterruptHandler

Critical Paths under _main in BANK0

    _main->_next_track

Critical Paths under _INTERRUPT_InterruptManager in BANK0

    None.

Critical Paths under _main in BANK1

    None.

Critical Paths under _INTERRUPT_InterruptManager in BANK1

    None.

Critical Paths under _main in BANK2

    None.

Critical Paths under _INTERRUPT_InterruptManager in BANK2

    None.

Critical Paths under _main in BANK3

    None.

Critical Paths under _INTERRUPT_InterruptManager in BANK3

    None.

Critical Paths under _main in BANK4

    None.

Critical Paths under _INTERRUPT_InterruptManager in BANK4

    None.

Critical Paths under _main in BANK5

    None.

Critical Paths under _INTERRUPT_InterruptManager in BANK5

    None.

Critical Paths under _main in BANK6

    None.

Critical Paths under _INTERRUPT_InterruptManager in BANK6

    None.

Critical Paths under _main in BANK7

    None.

Critical Paths under _INTERRUPT_InterruptManager in BANK7

    None.

Critical Paths under _main in BANK8

    None.

Critical Paths under _INTERRUPT_InterruptManager in BANK8

    None.

Critical Paths under _main in BANK9

    None.

Critical Paths under _INTERRUPT_InterruptManager in BANK9

    None.

Critical Paths under _main in BANK10

    None.

Critical Paths under _INTERRUPT_InterruptManager in BANK10

    None.

Critical Paths under _main in BANK11

    None.

Critical Paths under _INTERRUPT_InterruptManager in BANK11

    None.

Critical Paths under _main in BANK12

    None.

Critical Paths under _INTERRUPT_InterruptManager in BANK12

    None.

Call Graph Tables:

 ---------------------------------------------------------------------------------
 (Depth) Function   	        Calls       Base Space   Used Autos Params    Refs
 ---------------------------------------------------------------------------------
 (0) _main                                                 0     0      0     946
                  _SYSTEM_Initialize
                         _next_track
 ---------------------------------------------------------------------------------
 (1) _next_track                                           2     2      0     652
                                              0 BANK0      2     2      0
                 _TMR2_Period8BitSet
                         _play_track
 ---------------------------------------------------------------------------------
 (2) _play_track                                           6     3      3     630
                                              4 COMMON     6     3      3
                        _TMR1_Reload
                    _TMR1_StartTimer
                     _TMR1_StopTimer
                 _TMR2_Period8BitSet
 ---------------------------------------------------------------------------------
 (3) _TMR2_Period8BitSet                                   1     1      0      22
                                              2 COMMON     1     1      0
 ---------------------------------------------------------------------------------
 (3) _TMR1_StopTimer                                       0     0      0       0
 ---------------------------------------------------------------------------------
 (3) _TMR1_StartTimer                                      0     0      0       0
 ---------------------------------------------------------------------------------
 (3) _TMR1_Reload                                          0     0      0     214
                    _TMR1_WriteTimer
 ---------------------------------------------------------------------------------
 (4) _TMR1_WriteTimer                                      2     0      2     214
                                              2 COMMON     2     0      2
 ---------------------------------------------------------------------------------
 (1) _SYSTEM_Initialize                                    0     0      0     294
                     _CWG_Initialize
              _OSCILLATOR_Initialize
             _PIN_MANAGER_Initialize
                     _PMD_Initialize
                    _PWM3_Initialize
                    _TMR0_Initialize
                    _TMR1_Initialize
                    _TMR2_Initialize
 ---------------------------------------------------------------------------------
 (2) _TMR2_Initialize                                      0     0      0       0
 ---------------------------------------------------------------------------------
 (2) _TMR1_Initialize                                      0     0      0      98
           _TMR1_SetInterruptHandler
 ---------------------------------------------------------------------------------
 (3) _TMR1_SetInterruptHandler                             2     0      2      98
                                              2 COMMON     2     0      2
 ---------------------------------------------------------------------------------
 (2) _TMR0_Initialize                                      0     0      0      98
           _TMR0_SetInterruptHandler
 ---------------------------------------------------------------------------------
 (3) _TMR0_SetInterruptHandler                             2     0      2      98
                                              2 COMMON     2     0      2
 ---------------------------------------------------------------------------------
 (2) _PWM3_Initialize                                      0     0      0       0
 ---------------------------------------------------------------------------------
 (2) _PMD_Initialize                                       0     0      0       0
 ---------------------------------------------------------------------------------
 (2) _PIN_MANAGER_Initialize                               0     0      0      98
         _IOCCF4_SetInterruptHandler
 ---------------------------------------------------------------------------------
 (3) _IOCCF4_SetInterruptHandler                           2     0      2      98
                                              2 COMMON     2     0      2
 ---------------------------------------------------------------------------------
 (2) _OSCILLATOR_Initialize                                0     0      0       0
 ---------------------------------------------------------------------------------
 (2) _CWG_Initialize                                       0     0      0       0
 ---------------------------------------------------------------------------------
 Estimated maximum stack depth 4
 ---------------------------------------------------------------------------------
 (Depth) Function   	        Calls       Base Space   Used Autos Params    Refs
 ---------------------------------------------------------------------------------
 (5) _INTERRUPT_InterruptManager                           0     0      0     114
                    _PIN_MANAGER_IOC
                           _TMR0_ISR
                           _TMR1_ISR
 ---------------------------------------------------------------------------------
 (6) _TMR1_ISR                                             0     0      0     114
                   Absolute function *
       _TMR1_DefaultInterruptHandler *
                  i1_TMR1_WriteTimer
 ---------------------------------------------------------------------------------
 (7) i1_TMR1_WriteTimer                                    2     0      2     114
                                              0 COMMON     2     0      2
 ---------------------------------------------------------------------------------
 (7) _TMR1_DefaultInterruptHandler                         0     0      0       0
 ---------------------------------------------------------------------------------
 (6) _TMR0_ISR                                             0     0      0       0
                   Absolute function *
       _TMR0_DefaultInterruptHandler *
 ---------------------------------------------------------------------------------
 (7) _TMR0_DefaultInterruptHandler                         0     0      0       0
 ---------------------------------------------------------------------------------
 (6) _PIN_MANAGER_IOC                                      0     0      0       0
                         _IOCCF4_ISR
 ---------------------------------------------------------------------------------
 (7) _IOCCF4_ISR                                           0     0      0       0
                   Absolute function *
     _IOCCF4_DefaultInterruptHandler *
 ---------------------------------------------------------------------------------
 (8) _IOCCF4_DefaultInterruptHandler                       1     1      0       0
                                              0 COMMON     1     1      0
 ---------------------------------------------------------------------------------
 (7) Absolute function(Fake)                               0     0      0       0
 ---------------------------------------------------------------------------------
 Estimated maximum stack depth 8
 ---------------------------------------------------------------------------------

 Call Graph Graphs:

 _main (ROOT)
   _SYSTEM_Initialize
     _CWG_Initialize
     _OSCILLATOR_Initialize
     _PIN_MANAGER_Initialize
       _IOCCF4_SetInterruptHandler
     _PMD_Initialize
     _PWM3_Initialize
     _TMR0_Initialize
       _TMR0_SetInterruptHandler
     _TMR1_Initialize
       _TMR1_SetInterruptHandler
     _TMR2_Initialize
   _next_track
     _TMR2_Period8BitSet
     _play_track
       _TMR1_Reload
         _TMR1_WriteTimer
       _TMR1_StartTimer
       _TMR1_StopTimer
       _TMR2_Period8BitSet

 _INTERRUPT_InterruptManager (ROOT)
   _PIN_MANAGER_IOC
     _IOCCF4_ISR
       Absolute function(Fake) *
       _IOCCF4_DefaultInterruptHandler *
   _TMR0_ISR
     Absolute function(Fake) *
     _TMR0_DefaultInterruptHandler *
   _TMR1_ISR
     Absolute function(Fake) *
     _TMR1_DefaultInterruptHandler *
     i1_TMR1_WriteTimer *

 Address spaces:
Name               Size   Autos  Total    Cost      Usage
BIGRAM             3F0      0       0       0        0.0%
NULL                 0      0       0       0        0.0%
CODE                 0      0       0       0        0.0%
BITCOMMON            E      0       0       1        0.0%
BITSFR0              0      0       0       1        0.0%
SFR0                 0      0       0       1        0.0%
COMMON               E      A       C       2       85.7%
BITSFR1              0      0       0       2        0.0%
SFR1                 0      0       0       2        0.0%
BITSFR2              0      0       0       3        0.0%
SFR2                 0      0       0       3        0.0%
STACK                0      0       0       3        0.0%
BITSFR3              0      0       0       4        0.0%
SFR3                 0      0       0       4        0.0%
ABS                  0      0      4B       4        0.0%
BITBANK0            50      0       0       5        0.0%
BITSFR4              0      0       0       5        0.0%
SFR4                 0      0       0       5        0.0%
BANK0               50      2      3F       6       78.8%
BITSFR5              0      0       0       6        0.0%
SFR5                 0      0       0       6        0.0%
BITBANK1            50      0       0       7        0.0%
BITSFR6              0      0       0       7        0.0%
SFR6                 0      0       0       7        0.0%
BANK1               50      0       0       8        0.0%
BITSFR7              0      0       0       8        0.0%
SFR7                 0      0       0       8        0.0%
BITBANK2            50      0       0       9        0.0%
BITSFR8              0      0       0       9        0.0%
SFR8                 0      0       0       9        0.0%
BANK2               50      0       0      10        0.0%
BITSFR9              0      0       0      10        0.0%
SFR9                 0      0       0      10        0.0%
BITBANK3            50      0       0      11        0.0%
BITSFR10             0      0       0      11        0.0%
SFR10                0      0       0      11        0.0%
BANK3               50      0       0      12        0.0%
BITSFR11             0      0       0      12        0.0%
SFR11                0      0       0      12        0.0%
BITBANK4            50      0       0      13        0.0%
BITSFR12             0      0       0      13        0.0%
SFR12                0      0       0      13        0.0%
BANK4               50      0       0      14        0.0%
BITSFR13             0      0       0      14        0.0%
SFR13                0      0       0      14        0.0%
BITBANK5            50      0       0      15        0.0%
BITSFR14             0      0       0      15        0.0%
SFR14                0      0       0      15        0.0%
BANK5               50      0       0      16        0.0%
BITSFR15             0      0       0      16        0.0%
SFR15                0      0       0      16        0.0%
BITBANK6            50      0       0      17        0.0%
BITSFR16             0      0       0      17        0.0%
SFR16                0      0       0      17        0.0%
BANK6               50      0       0      18        0.0%
BITSFR17             0      0       0      18        0.0%
SFR17                0      0       0      18        0.0%
BITBANK7            50      0       0      19        0.0%
BITSFR18             0      0       0      19        0.0%
SFR18                0      0       0      19        0.0%
BANK7               50      0       0      20        0.0%
BITSFR19             0      0       0      20        0.0%
SFR19                0      0       0      20        0.0%
BITBANK8            50      0       0      21        0.0%
BITSFR20             0      0       0      21        0.0%
SFR20                0      0       0      21        0.0%
BANK8               50      0       0      22        0.0%
BITSFR21             0      0       0      22        0.0%
SFR21                0      0       0      22        0.0%
BITBANK9            50      0       0      23        0.0%
BITSFR22             0      0       0      23        0.0%
SFR22                0      0       0      23        0.0%
BANK9               50      0       0      24        0.0%
BITSFR23             0      0       0      24        0.0%
SFR23                0      0       0      24        0.0%
BITBANK10           50      0       0      25        0.0%
BITSFR24             0      0       0      25        0.0%
SFR24                0      0       0      25        0.0%
BANK10              40      0       0      26        0.0%
BITSFR25             0      0       0      26        0.0%
SFR25                0      0       0      26        0.0%
BITBANK11           50      0       0      27        0.0%
BITSFR26             0      0       0      27        0.0%
SFR26                0      0       0      27        0.0%
BITSFR27             0      0       0      28        0.0%
SFR27                0      0       0      28        0.0%
BANK11               0      0       0      28        0.0%
BITBANK12           30      0       0      29        0.0%
BITSFR28             0      0       0      29        0.0%
SFR28                0      0       0      29        0.0%
BITSFR29             0      0       0      30        0.0%
SFR29                0      0       0      30        0.0%
BANK12               0      0       0      30        0.0%
BITSFR30             0      0       0      31        0.0%
SFR30                0      0       0      31        0.0%
DATA                 0      0      4B      31        0.0%
BITSFR31             0      0       0      32        0.0%
SFR31                0      0       0      32        0.0%
BITSFR32             0      0       0      33        0.0%
SFR32                0      0       0      33        0.0%
BITSFR33             0      0       0      34        0.0%
SFR33                0      0       0      34        0.0%
BITSFR34             0      0       0      35        0.0%
SFR34                0      0       0      35        0.0%
BITSFR35             0      0       0      36        0.0%
SFR35                0      0       0      36        0.0%
BITSFR36             0      0       0      37        0.0%
SFR36                0      0       0      37        0.0%
BITSFR37             0      0       0      38        0.0%
SFR37                0      0       0      38        0.0%
BITSFR38             0      0       0      39        0.0%
SFR38                0      0       0      39        0.0%
BITSFR39             0      0       0      40        0.0%
SFR39                0      0       0      40        0.0%
BITSFR40             0      0       0      41        0.0%
SFR40                0      0       0      41        0.0%
BITSFR41             0      0       0      42        0.0%
SFR41                0      0       0      42        0.0%
BITSFR42             0      0       0      43        0.0%
SFR42                0      0       0      43        0.0%
BITSFR43             0      0       0      44        0.0%
SFR43                0      0       0      44        0.0%
BITSFR44             0      0       0      45        0.0%
SFR44                0      0       0      45        0.0%
BITSFR45             0      0       0      46        0.0%
SFR45                0      0       0      46        0.0%
BITSFR46             0      0       0      47        0.0%
SFR46                0      0       0      47        0.0%
BITSFR47             0      0       0      48        0.0%
SFR47                0      0       0      48        0.0%
BITSFR48             0      0       0      49        0.0%
SFR48                0      0       0      49        0.0%
BITSFR49             0      0       0      50        0.0%
SFR49                0      0       0      50        0.0%
BITSFR50             0      0       0      51        0.0%
SFR50                0      0       0      51        0.0%
BITSFR51             0      0       0      52        0.0%
SFR51                0      0       0      52        0.0%
BITSFR52             0      0       0      53        0.0%
SFR52                0      0       0      53        0.0%
BITSFR53             0      0       0      54        0.0%
SFR53                0      0       0      54        0.0%
BITSFR54             0      0       0      55        0.0%
SFR54                0      0       0      55        0.0%
BITSFR55             0      0       0      56        0.0%
SFR55                0      0       0      56        0.0%
BITSFR56             0      0       0      57        0.0%
SFR56                0      0       0      57        0.0%
BITSFR57             0      0       0      58        0.0%
SFR57                0      0       0      58        0.0%
BITSFR58             0      0       0      59        0.0%
SFR58                0      0       0      59        0.0%
BITSFR59             0      0       0      60        0.0%
SFR59                0      0       0      60        0.0%
BITSFR60             0      0       0      61        0.0%
SFR60                0      0       0      61        0.0%
BITSFR61             0      0       0      62        0.0%
SFR61                0      0       0      62        0.0%
BITSFR62             0      0       0      63        0.0%
SFR62                0      0       0      63        0.0%
BITSFR63             0      0       0      64        0.0%
SFR63                0      0       0      64        0.0%


Microchip Technology PIC Macro Assembler V2.32 build 20210201212658 
Symbol Table                                                                                   Sun Dec 05 21:49:00 2021

                                         l9 02D7      __end_of_IOCCF4_DefaultInterruptHandler 024B  
   __size_of_IOCCF4_DefaultInterruptHandler 0014              _IOCCF4_DefaultInterruptHandler 0237  
                                        l39 02A7                                          l72 02F6  
                           next_track@state 007A                   _track_silent_night_length 0021  
                                       l210 02BD                                         l213 02DF  
                                       l302 01DB                                         l207 01F4  
                                       l305 02FC                                         l411 0170  
                                       l236 027B                                         l148 01BC  
                                       l332 02E5                                         l316 025B  
                                       l308 02F9                                         l159 02F1  
                                       l319 02C6                                         l415 018E  
                                       l409 0181                                         l460 02EB  
                                       l438 0236                                         l382 012A  
                                       u220 0250                                         u221 024F  
                                       u410 00F2                                         u411 00F1  
                                       u260 0175                                         u420 0203  
                                       u261 0174                                         u421 0202  
                                       u270 018E                                         _PR2 028D  
                                       u271 018D                                         u275 018A  
                           _timer1ReloadVal 0057                     __size_of_PMD_Initialize 0008  
                           _TMR2_Initialize 029A                                        l1401 019E  
                                      l1411 01A6                                        l1403 019F  
                                      l1421 01B2                                        l1413 01A8  
                                      l1405 01A0                                        l1341 0251  
                                      l1501 0178                                        l1423 01B4  
                                      l1415 01A9                                        l1407 01A2  
                                      l1343 0253                                        l1351 02F3  
                                      l1503 017B                                        l1441 02B8  
                                      l1353 02EC                                        l1425 01B7  
                                      l1417 01AA                                        l1409 01A4  
                                      l1361 02E0                                        l1345 0255  
                                      l1337 024B                                        l1443 02BB  
                                      l1427 01BA                                        l1419 01AB  
                                      l1435 02D8                                        l1371 02D0  
                                      l1451 01C2                                        l1531 01E8  
                                      l1523 01DC                                        l1339 0250  
                                      l1347 0257                                        l1363 02FA  
                                      l1445 02BC                                        l1437 02B4  
                                      l1461 01D2                                        l1453 01C4  
                                      l1381 02A2                                        l1373 029A  
                                      l1533 01EB                                        l1525 01DF  
                                      l1349 0259                                        l1365 02F7  
                                      l1439 02B7                                        l1391 0195  
                                      l1471 022B                                        l1463 01D9  
                                      l1455 01C6                                        l1447 01BD  
                                      l1383 02A4                                        l1375 029D  
                                      l1535 01EE                                        l1527 01E2  
                                      l1367 02BE                                        l1631 00FA  
                                      l1481 0271                                        l1393 0197  
                                      l1385 018F                                        l1369 02E6  
                                      l1473 022C                                        l1465 0223  
                                      l1457 01C8                                        l1449 01C0  
                                      l1377 029E                                        l1537 01F1  
                                      l1529 01E5                                        l1633 0106  
                                      l1625 00E7                                        l1491 0279  
                                      l1483 0274                                        l1395 019A  
                                      l1387 0191                                        l1475 0233  
                                      l1467 0228                                        l1459 01D0  
                                      l1379 02A1                                        l1635 0112  
                                      l1627 00F2                                        l1651 01FA  
                                      l1485 0275                                        l1477 026D  
                                      l1397 019C                                        l1389 0193  
                                      l1469 0229                                        l1493 015E  
                                      l1629 00F5                                        l1653 01FD  
                                      l1645 01F5                                        l1487 0276  
                                      l1479 0270                                        l1399 019D  
                                      l1495 0163                                        l1639 0117  
                                      l1655 0203                                        l1647 01F8  
                                      l1489 0277                                        l1497 016D  
                                      l1657 0206                                        l1649 01F9  
                                      l1499 0175                                        l1679 011F  
                                      _LATA 0018                                        _LATC 001A  
                                      _T2PR 028D                                        _PMD0 0796  
                                      _PMD1 0797                                        _PMD2 0798  
                                      _PMD3 0799                                        _PMD4 079A  
                                      _PMD5 079B                     __size_of_CWG_Initialize 000F  
                                      _TMR2 028C                                        _WPUA 1F39  
                                      _WPUC 1F4F                                        _main 01F5  
                                      fsr0h 0005                                        fsr1h 0007  
                                      fsr0l 0004                                        indf1 0001  
                                      fsr1l 0006                                        btemp 007E  
                                      start 0031                  ??_TMR1_SetInterruptHandler 0074  
                   __end_of_TMR0_Initialize 0237              ??_TMR0_DefaultInterruptHandler 0070  
            __size_of_OSCILLATOR_Initialize 000A               __end_of_OSCILLATOR_Initialize 02BE  
                       __size_of_IOCCF4_ISR 000F                                       ?_main 0070  
                           _TMR1_StartTimer 02FA                                       _T1CLK 0211  
                                     _T1CON 020E                                       _T2CON 028E  
                                     _T2HLT 028F                                       _T2TMR 028C  
                                     i1l152 02CF                                       _T2RST 0291  
                                     i1l164 024A                                       i1l156 0299  
                                     i1l316 026C                                       i1l335 02FD  
                                     i1l271 002F                                       i1l263 0013  
                                     i1l329 0222                                       i1l265 001F  
                                     i1l266 002F                                       i1l463 02FE  
                                     i1l457 028A                                       _OSCEN 0891  
                                     u30_20 0285                                       u30_21 0284  
                                     u23_20 023F                                       u31_20 021D  
                                     u23_21 023D                                       u31_21 021C  
                                     u24_20 0240                                       u25_20 0292  
                                     u33_20 000B                                       _TMR0H 059D  
                                     u25_21 0291                                       u33_21 000A  
                                     _TMR1H 020D                                       _TMR0L 059C  
                                     _TMR1L 020C                                       u34_20 000F  
                                     u34_21 000E                                       u35_20 0017  
                                     u35_21 0016                                       u28_20 0261  
                                     u36_20 001B                                       u28_21 0260  
                                     u36_21 001A                                       u29_20 02CC  
                                     u37_20 0023                                       u29_21 02CB  
                                     u37_21 0022                                       u38_20 0027  
                                     u38_21 0026                                       u39_20 002B  
                                     u39_21 002A                                       _TRISA 0012  
                                     _TRISC 0014           __size_of_TMR0_SetInterruptHandler 0006  
                 ?_TMR0_SetInterruptHandler 0072                            __end_of_TMR0_ISR 028B  
                          __end_of_TMR1_ISR 0223                     __end_of_PIN_MANAGER_IOC 02D0  
                   __end_of_PWM3_Initialize 02D8                     __end_of_TMR1_Initialize 01DC  
                                     pclath 000A                                       status 0003  
                                     wtemp0 007E                  __end_of_TMR2_Period8BitSet 02F7  
                           _TMR1_WriteTimer 024B                             __initialization 0033  
                              __end_of_main 020C                     __end_of_TMR2_Initialize 02A8  
               ?_INTERRUPT_InterruptManager 0070                                      ??_main 007A  
              ??_IOCCF4_SetInterruptHandler 0074                                      _ANSELA 1F38  
                                    _ANSELC 1F4E                                      _T0CON0 059E  
                                    _T0CON1 059F                                      _T1GATE 0210  
                                    _T1GCON 020F                                      _RC2PPS 1F22  
                                    _RC3PPS 1F23                     TMR1_WriteTimer@timerVal 0072  
                                    i1l1431 0292                                      i1l1511 0264  
                                    i1l1433 0297                                      i1l1521 02CC  
                                    i1l1513 0266                                      i1l1505 025C  
                                    _ODCONA 1F3A                                      i1l1355 0237  
                                    i1l1507 0261                                      i1l1515 0268  
                                    _ODCONC 1F50                                      i1l1357 0239  
                                    i1l1429 028B                                      i1l1541 027E  
                                    i1l1517 026A                                      i1l1509 0262  
                                    i1l1359 0248                                      i1l1519 02C7  
                                    i1l1543 0285                                      i1l1551 021D  
                                    i1l1545 020C                                      i1l1539 027C  
                                    i1l1547 020E                                      i1l1549 0216  
                                    i1l1581 0017                                      i1l1583 001B  
                                    i1l1575 0006                                      i1l1585 0023  
                                    i1l1577 000B                                      i1l1587 0027  
                                    i1l1579 000F                                      i1l1589 002B  
                                    _INLVLA 1F3C                                      _INLVLC 1F52  
                                    _OSCFRQ 0893        __end_of_TMR1_DefaultInterruptHandler 02FE  
     __size_of_TMR1_DefaultInterruptHandler 0001                _TMR1_DefaultInterruptHandler 02FD  
                      _track_we_wish_length 0022                   i1TMR1_WriteTimer@timerVal 0070  
                   __end_of_TMR1_StartTimer 02FD                                ?_TMR1_Reload 0070  
                          ?_TMR0_Initialize 0070                                      _paused 0020  
                           play_track@track 0074         __size_of_IOCCF4_SetInterruptHandler 0006  
                              __pdataBIGRAM 2360                              _PMD_Initialize 02D8  
  TMR0_SetInterruptHandler@InterruptHandler 0072    TMR1_SetInterruptHandler@InterruptHandler 0072  
IOCCF4_SetInterruptHandler@InterruptHandler 0072                            ?_PIN_MANAGER_IOC 0070  
                   __end_of_TMR1_WriteTimer 025C                              _CWG_Initialize 026D  
                              ??_IOCCF4_ISR 0071                            ?_PWM3_Initialize 0070  
                          ?_TMR1_Initialize 0070                           _SYSTEM_Initialize 01DC  
                   __end_of__initialization 0053                          ?_SYSTEM_Initialize 0070  
                            __pcstackCOMMON 0070                                __pidataBANK0 012B  
                       ??_SYSTEM_Initialize 0074                                   ?_TMR0_ISR 0070  
                                 ?_TMR1_ISR 0070               ?_TMR1_DefaultInterruptHandler 0070  
                        _track_silent_night 2360                            ?_TMR2_Initialize 0070  
                    __end_of_PMD_Initialize 02E0                          __end_of_IOCCF4_ISR 029A  
                    __end_of_CWG_Initialize 027C                   __end_of_SYSTEM_Initialize 01F5  
                                __pbssBANK0 005B                               _current_track 005B  
                                __pmaintext 01F5            __end_of_TMR0_SetInterruptHandler 02EC  
                          ?_TMR1_StartTimer 0070                                  ??_TMR0_ISR 0070  
                                ??_TMR1_ISR 0072                                  __pintentry 0004  
                           ?_PMD_Initialize 0070                                     _CWG1DBF 060F  
                                   _CWG1AS0 0612                                     _CWG1AS1 0613  
                                   _CWG1DBR 060E                                     _CWG1DAT 060D  
                                   _CWG1PPS 1EB1                                     _CWG1STR 0614  
                   __size_of_TMR1_StopTimer 0003                                     _OSCCON1 088D  
                                   _OSCCON3 088F                                     _OSCSTAT 0890  
                                   _OSCTUNE 0892                                     _PWM3DCH 0315  
                                   _PWM3DCL 0314                                     _PWM3CON 0316  
        __end_of_IOCCF4_SetInterruptHandler 02F2                  _IOCCF4_SetInterruptHandler 02EC  
                           ?_CWG_Initialize 0070                                     _SLRCONA 1F3B  
                                   _SLRCONC 1F51                            ?_TMR1_WriteTimer 0072  
                               play_track@i 0078                          _TMR2_Period8BitSet 02F2  
                      __size_of_TMR1_Reload 0009                                     __ptext1 00E7  
                                   __ptext2 015E                                     __ptext3 02F2  
                                   __ptext4 02F7                                     __ptext5 02FA  
                                   __ptext6 02BE                                     __ptext7 024B  
                                   __ptext8 01DC                                     __ptext9 029A  
               TMR2_Period8BitSet@periodVal 0072              ??_TMR1_DefaultInterruptHandler 0070  
                                 _T1CONbits 020E                       _OSCILLATOR_Initialize 02B4  
                                 _T2CONbits 028E           __size_of_TMR1_SetInterruptHandler 0006  
                       ?_TMR2_Period8BitSet 0070                    ??_PIN_MANAGER_Initialize 0074  
                 ?_TMR1_SetInterruptHandler 0072                                   _T2HLTbits 028F  
                          play_track@length 0076                                   _IOCCFbits 1F55  
                                 _IOCCNbits 1F54                                   _IOCCPbits 1F53  
                __size_of_SYSTEM_Initialize 0019                        end_of_initialization 0053  
                                 _T2RSTbits 0291                                     init_ram 02A8  
                                _next_track 00E7                                     initloop 02A9  
                                _play_track 015E                        ??_TMR2_Period8BitSet 0072  
                  _TMR0_SetInterruptHandler 02E6                     _IOCCF4_InterruptHandler 0059  
                             __pidataBIGRAM 0057                           __size_of_TMR0_ISR 000F  
                         __size_of_TMR1_ISR 0017                              _TMR1_StopTimer 02F7  
                    ?_OSCILLATOR_Initialize 0070                         start_initialization 0033  
                  __size_of_TMR0_Initialize 0014             __size_of_PIN_MANAGER_Initialize 002E  
                               ?_next_track 0070                                 _bail_signal 005C  
                               ?_play_track 0074                    __size_of_PIN_MANAGER_IOC 0009  
                  __size_of_PWM3_Initialize 0008                    __size_of_TMR1_Initialize 001F  
                          ??_PMD_Initialize 0072                      __end_of_TMR1_StopTimer 02FA  
                               __pdataBANK0 0020                            ??_CWG_Initialize 0072  
                               __pbssCOMMON 007A                                   ___latbits 0002  
                             __pcstackBANK0 005D                    __size_of_TMR2_Initialize 000E  
               ?_IOCCF4_SetInterruptHandler 0072                                 _CWG1AS0bits 0612  
                     _TMR0_InterruptHandler 0053                                   __pnvBANK0 0053  
                    _PIN_MANAGER_Initialize 018F            __end_of_TMR1_SetInterruptHandler 02E6  
                           ?_TMR1_StopTimer 0070                ??_INTERRUPT_InterruptManager 0072  
                       __size_of_next_track 0044                         __size_of_play_track 0031  
                  __size_of_TMR1_StartTimer 0003                                    _CWG1CON0 0610  
                                  _CWG1CON1 0611                                    _T2CLKCON 0290  
          ??_IOCCF4_DefaultInterruptHandler 0070             ?_IOCCF4_DefaultInterruptHandler 0070  
                         i1_TMR1_WriteTimer 025C                           ??_TMR0_Initialize 0074  
                                  _LATCbits 001A                          ?i1_TMR1_WriteTimer 0070  
                                  _PIE0bits 0716                                    _PIE4bits 071A  
                  __size_of_TMR1_WriteTimer 0011         __size_of_INTERRUPT_InterruptManager 002D  
                ??_TMR0_SetInterruptHandler 0074                                    _PIR0bits 070C  
                                  _PIR4bits 0710                               ??_TMR1_Reload 0074  
                       ??i1_TMR1_WriteTimer 0072                                    _TMR0_ISR 027C  
                                  _TMR1_ISR 020C                           ??_PIN_MANAGER_IOC 0071  
                         ??_TMR1_Initialize 0074                           ??_PWM3_Initialize 0072  
                 __end_ofi1_TMR1_WriteTimer 026D                           ??_TMR2_Initialize 0072  
               __size_of_TMR2_Period8BitSet 0005                     ??_OSCILLATOR_Initialize 0072  
                  _TMR1_SetInterruptHandler 02E0                                  _CWG1CLKCON 060C  
                       __end_of_TMR1_Reload 02C7                       _TMR1_InterruptHandler 0055  
                                _T0CON0bits 059E                                    __ptext10 01BD  
                                  __ptext11 02E0                                    __ptext12 0223  
                                  __ptext21 020C                                    __ptext13 02E6  
                                _T1GCONbits 020F                                    __ptext22 025C  
                                  __ptext14 02D0                                    __ptext23 02FD  
                                  __ptext15 02D8                                    __ptext24 027C  
                                  __ptext16 018F                                    __ptext25 02FE  
                                  __ptext17 02EC                                    __ptext26 02C7  
                                  __ptext18 02B4                                    __ptext27 028B  
                                  __ptext19 026D                                    __ptext28 0237  
                         ??_TMR1_StartTimer 0072                                  _IOCCF4_ISR 028B  
                              ??_next_track 005D                               __size_of_main 0017  
                              ??_play_track 0077        __end_of_TMR0_DefaultInterruptHandler 02FF  
     __size_of_TMR0_DefaultInterruptHandler 0001                _TMR0_DefaultInterruptHandler 02FE  
                                  int$flags 007E          __end_of_INTERRUPT_InterruptManager 0031  
                _INTERRUPT_InterruptManager 0004                           ??_TMR1_WriteTimer 0074  
        IOCCF4_DefaultInterruptHandler@flag 007B                          __end_of_next_track 012B  
                                _INTCONbits 000B                          __end_of_play_track 018F  
                __size_ofi1_TMR1_WriteTimer 0011                                    intlevel1 0000  
                   ?_PIN_MANAGER_Initialize 0070                            ??_TMR1_StopTimer 0072  
             ?_TMR0_DefaultInterruptHandler 0070                                 _TMR1_Reload 02BE  
                             _track_we_wish 0023                             _TMR0_Initialize 0223  
                               ?_IOCCF4_ISR 0070              __end_of_PIN_MANAGER_Initialize 01BD  
                           _PIN_MANAGER_IOC 02C7                             _TMR1_Initialize 01BD  
                           _PWM3_Initialize 02D0  
